(dp0
(I0
I0
I0
I0
I0
I0
I0
I0
I0
tp1
(dp2
I0
F0.12572711952051122
sI1
F0.08560124469254046
sI2
F0.027915654312138494
sI3
F0.13408426857369485
sI4
F0.25802899397065215
sI5
F0.02254818080841544
sI6
F-0.019943649276477255
sI7
F0.1074041216382545
sI8
F0.07473337196800024
ss(I1
I0
I0
I0
I0
I0
I0
I0
I0
tp3
(dp4
I1
F-0.7144737102751149
sI2
F-0.5394111244706081
sI3
F-0.7223412584668741
sI4
F0.07909745957689901
sI5
F-0.7161460039800028
sI6
F-0.5244295512197026
sI7
F-0.7187503520627763
sI8
F-0.5439765046412759
ss(I1
I2
I0
I0
I0
I0
I0
I0
I0
tp5
(dp6
I2
F-0.07312493236835017
sI3
F0.6494794336229686
sI4
F0.7669644529323482
sI5
F-0.09428211324236815
sI6
F0.5086409468873143
sI7
F0.2827384492074584
sI8
F0.1403794249924616
ss(I1
I2
I0
I0
I0
I0
I1
I0
I0
tp7
(dp8
I2
F-0.9697475737243219
sI3
F-0.7958025146039864
sI4
F-0.9334351304707987
sI5
F-0.972362545870884
sI7
F-0.9671937408121636
sI8
F-0.8985203619911167
ss(I2
I2
I1
I0
I0
I0
I0
I0
I1
tp9
(dp10
I3
F0.95192528267752
sI4
F0.8228949554929073
sI5
F0.9999999999999996
sI6
F0.8436758009987836
sI7
F0.8321354898106323
ss(I2
I2
I1
I1
I0
I0
I0
I0
I1
tp11
(dp12
I4
F-0.8772075788635251
sI5
F-0.8394618560264341
sI6
F-0.8617840353914739
sI7
F-0.8623228104477189
ss(I2
I2
I1
I1
I2
I0
I0
I0
I1
tp13
(dp14
I5
F0.9999999999999996
sI6
F-0.8039825070498622
sI7
F0.9999389133280217
ss(I1
I2
I1
I0
I0
I0
I0
I0
I0
tp15
(dp16
I3
F-0.6694738247338781
sI4
F0.08827132522349738
sI5
F-0.4850893871688299
sI6
F-0.6853814825434738
sI7
F-0.11249886256538491
sI8
F-0.434407508945038
ss(I1
I2
I1
I2
I0
I0
I0
I0
I0
tp17
(dp18
I4
F0.854913292396867
sI5
F0.296326472825458
sI6
F-0.5885853500880056
sI7
F0.05691376275783362
sI8
F0.8041494245229511
ss(I1
I2
I1
I2
I1
I0
I0
I0
I0
tp19
(dp20
I5
F-0.9999999888704683
sI6
F-0.9817508568202986
sI7
F-0.9999999999999996
sI8
F-0.8297132330742302
ss(I1
I2
I1
I2
I1
I2
I0
I0
I0
tp21
(dp22
I6
F0.9999999999999996
sI7
F0.9533661187909109
sI8
F0.9853669258879797
ss(I0
I0
I0
I0
I1
I0
I0
I0
I0
tp23
(dp24
I0
F-0.34389522420815727
sI1
F-0.8554695832817427
sI2
F-0.4237421187542787
sI3
F-0.828602802054104
sI5
F-0.7721408413077452
sI6
F-0.154568800949067
sI7
F-0.7802201671004901
sI8
F-0.3640381060989008
ss(I2
I0
I0
I0
I1
I0
I0
I0
I0
tp25
(dp26
I1
F0.1888694445927997
sI2
F0.0982621133387982
sI3
F0.28171046801245464
sI5
F0.14321258704017986
sI6
F0.176771463888793
sI7
F0.10844584284219753
sI8
F0.14680295750606268
ss(I2
I0
I1
I0
I1
I0
I0
I0
I0
tp27
(dp28
I1
F-0.979758410077519
sI3
F-0.4678311384938418
sI5
F-0.9001382742755567
sI6
F-0.1024507030134825
sI7
F-0.834274997782373
sI8
F-0.9850580306293574
ss(I2
I2
I1
I0
I1
I0
I0
I0
I0
tp29
(dp30
I3
F0.9054380363845795
sI5
F0.9606166340638657
sI6
F0.9999999999999996
sI7
F0.24248544328390884
sI8
F0.9825202058608022
ss(I2
I2
I1
I1
I1
I0
I0
I0
I0
tp31
(dp32
I5
F-0.8084079983107882
sI6
F-0.9962789788932529
sI7
F-0.9999997822663372
sI8
F-0.9999998463773402
ss(I2
I2
I1
I1
I1
I2
I0
I0
I0
tp33
(dp34
I6
F0.9999999999999996
sI7
F0.1038622234569481
sI8
F0.13577709849201447
ss(I0
I1
I0
I0
I0
I0
I0
I0
I0
tp35
(dp36
I0
F-0.35843755764351143
sI2
F-0.20981415421420546
sI3
F-0.6389904741748822
sI4
F-0.11293615664688555
sI5
F-0.6158306692586084
sI6
F-0.5952103033030518
sI7
F-0.13987307836397267
sI8
F-0.3747523442693522
ss(I2
I1
I0
I0
I0
I0
I0
I0
I0
tp37
(dp38
I2
F-0.548542146185497
sI3
F-0.03586443185280724
sI4
F0.37591575163223834
sI5
F-0.02558170833083029
sI6
F0.13231804692254567
sI7
F-0.13458567006086425
sI8
F0.028361930529627283
ss(I2
I1
I1
I0
I0
I0
I0
I0
I0
tp39
(dp40
I3
F0.6713194113151628
sI4
F0.18336489935208972
sI5
F-0.6079973809418583
sI6
F0.6291641511262474
sI7
F-0.17627341729388527
sI8
F-0.48850923850390304
ss(I2
I2
I0
I1
I0
I0
I1
I0
I0
tp41
(dp42
I2
F-0.7942539197933274
sI4
F-0.9086881804693696
sI5
F-0.7583833150088387
sI7
F-0.9097076206867608
sI8
F-0.879538638787234
ss(I2
I2
I0
I1
I0
I0
I1
I0
I1
tp43
(dp44
I2
F0.9999908312267403
sI4
F-0.36522811790000004
sI5
F-0.5941361907723336
sI7
F0.5311967595412467
ss(I1
I2
I1
I2
I0
I0
I0
I1
I0
tp45
(dp46
I4
F-0.08953359365406327
sI5
F-0.5709339763840414
sI6
F-0.797743539420406
sI8
F-0.17706122008517666
ss(I1
I2
I1
I2
I2
I0
I0
I1
I0
tp47
(dp48
I5
F0.13997379330363677
sI6
F-0.7837110189094507
sI8
F-0.7599420862187397
ss(I1
I2
I1
I2
I2
I0
I0
I1
I1
tp49
(dp50
I5
F0.9999999999999996
sI6
F-0.9999999998930481
ss(I2
I1
I0
I0
I1
I0
I0
I0
I0
tp51
(dp52
I2
F-0.9742981061420225
sI3
F-0.8823156378656504
sI5
F-0.8457047214662998
sI6
F-0.8157708583218958
sI7
F-0.21190343628129268
sI8
F-0.9705884004756103
ss(I2
I1
I2
I0
I1
I0
I0
I0
I0
tp53
(dp54
I3
F0.9549396212932362
sI5
F0.9874674103034113
sI6
F0.14458688798724095
sI7
F0.9999999999999996
sI8
F0.14175846025799912
ss(I2
I1
I2
I1
I1
I0
I0
I0
I0
tp55
(dp56
I5
F-0.9818206787327832
sI6
F-0.9999999999995277
sI7
F-0.979858636908958
sI8
F-0.7934263958348151
ss(I2
I2
I0
I1
I1
I0
I2
I1
I0
tp57
(dp58
I2
F0.004664405426906226
sI5
F0.9999999999999996
sI8
F-0.9793392832228294
ss(I2
I2
I1
I1
I1
I0
I2
I1
I0
tp59
(dp60
I5
F2e-323
sI8
F-0.9999999999999996
ss(I2
I2
I1
I1
I1
I2
I2
I1
I0
tp61
(dp62
I8
F2e-323
ss(I2
I2
I1
I0
I1
I2
I0
I0
I1
tp63
(dp64
I3
F0.20868022743762976
sI6
F0.9999999999999996
sI7
F0.11771320317394166
ss(I2
I2
I1
I1
I1
I2
I0
I0
I1
tp65
(dp66
I6
F2e-323
sI7
F-0.9999999999999996
ss(I2
I2
I1
I1
I1
I2
I2
I0
I1
tp67
(dp68
I7
F2e-323
ss(I1
I2
I1
I2
I0
I1
I0
I0
I0
tp69
(dp70
I4
F-0.6102109193466677
sI6
F-0.7553453046385639
sI7
F-0.6718378782457944
sI8
F-0.009544978424809739
ss(I1
I2
I1
I2
I2
I1
I0
I0
I0
tp71
(dp72
I6
F-0.8395751854174018
sI7
F0.016871042469977487
sI8
F0.9999999999999996
ss(I1
I2
I1
I2
I2
I1
I1
I0
I0
tp73
(dp74
I7
F0.9999999999999996
sI8
F9.101546457199223e-16
ss(I2
I1
I1
I0
I2
I2
I1
I2
I1
tp75
(dp76
I3
F2e-323
ss(I2
I2
I1
I1
I1
I2
I0
I2
I1
tp77
(dp78
I6
F0.9999999999999996
ss(I1
I2
I0
I0
I0
I0
I0
I0
I1
tp79
(dp80
I2
F-0.8626577889585814
sI3
F-0.59123237805074
sI4
F0.07526948723175021
sI5
F-0.8614269653564328
sI6
F-0.8609229953010636
sI7
F-0.6107922726260985
ss(I1
I2
I0
I0
I0
I2
I0
I0
I1
tp81
(dp82
I2
F-0.1634248039007291
sI3
F0.19808965492804312
sI4
F0.9481885843302913
sI6
F0.08572656799503739
sI7
F0.01
ss(I1
I2
I1
I2
I0
I0
I1
I0
I0
tp83
(dp84
I4
F0.8582019800081749
sI5
F-0.576600702393403
sI7
F-0.3499947650055799
sI8
F-0.7920499565844045
ss(I1
I2
I1
I2
I2
I0
I1
I0
I0
tp85
(dp86
I5
F-0.8851900918801486
sI7
F-0.96620881344709
sI8
F-0.9995847907001272
ss(I1
I2
I1
I0
I2
I0
I0
I0
I0
tp87
(dp88
I3
F-0.7696775536945283
sI5
F-0.7825911018648456
sI6
F-0.889995994418693
sI7
F-0.008021779763836473
sI8
F-0.975941902564313
ss(I1
I2
I1
I1
I2
I0
I0
I0
I0
tp89
(dp90
I5
F-0.8595991116754911
sI6
F0.0817975976950288
sI7
F0.9999999999999996
sI8
F-0.8553592807381125
ss(I1
I2
I0
I0
I0
I1
I0
I0
I0
tp91
(dp92
I2
F-0.7829823486219407
sI3
F-0.6679181203214339
sI4
F0.13523812040631528
sI6
F-0.6572886489769902
sI7
F-0.6108517357902115
sI8
F-0.2946589547460373
ss(I2
I1
I0
I0
I0
I2
I0
I0
I1
tp93
(dp94
I2
F-0.3393739948209853
sI3
F0.04498904083405117
sI4
F0.19699721093602812
sI6
F0.06294663346796898
sI7
F0.5439529523518106
ss(I2
I1
I1
I0
I0
I2
I0
I0
I1
tp95
(dp96
I3
F0.9579679066454448
sI4
F0.0013508517176749246
sI6
F0.17394882377953008
sI7
F-0.06961336839939865
ss(I2
I2
I0
I1
I0
I0
I1
I2
I1
tp97
(dp98
I2
F-0.9496077867725639
sI4
F-0.9894432159917929
sI5
F-0.9928596530049475
ss(I2
I2
I1
I1
I0
I0
I1
I2
I1
tp99
(dp100
I4
F0.9999999999999815
sI5
F-0.9412687656269296
ss(I2
I0
I1
I0
I0
I0
I0
I0
I0
tp101
(dp102
I1
F-0.6362823519737121
sI3
F0.15491528837534482
sI4
F0.22472112705657044
sI5
F0.3541602905765967
sI6
F0.4669755131894684
sI7
F0.2585691271977945
sI8
F0.6185470235428074
ss(I2
I2
I1
I1
I0
I0
I1
I0
I0
tp103
(dp104
I4
F0.9818587907294118
sI5
F-0.9347015519888233
sI7
F-0.9124426086749375
sI8
F-0.8677847339664093
ss(I2
I2
I1
I1
I2
I0
I1
I0
I0
tp105
(dp106
I5
F-0.9998391394100059
sI7
F-0.9992288425751076
sI8
F-0.9778230607033576
ss(I2
I2
I1
I1
I2
I1
I1
I0
I0
tp107
(dp108
I7
F0.9999999999999996
sI8
F0.9999992686395696
ss(I2
I2
I1
I1
I2
I0
I1
I1
I0
tp109
(dp110
I5
F-0.996926314750608
sI8
F0.9999999999999996
ss(I2
I2
I1
I1
I2
I2
I1
I1
I0
tp111
(dp112
I8
F0.9999999999999996
ss(I1
I2
I1
I2
I2
I1
I0
I1
I0
tp113
(dp114
I6
F-0.9999999999999996
sI8
F2e-323
ss(I2
I1
I1
I1
I2
I2
I0
I2
I1
tp115
(dp116
I6
F2e-323
ss(I2
I2
I1
I1
I2
I2
I0
I1
I1
tp117
(dp118
I6
F0.9999999999999996
ss(I1
I2
I1
I0
I2
I0
I1
I0
I0
tp119
(dp120
I3
F0.9388784004029672
sI5
F-0.8755492770683679
sI7
F0.9999999999999996
sI8
F-0.9623785385270613
ss(I1
I2
I0
I0
I1
I0
I0
I0
I0
tp121
(dp122
I2
F-0.940656052275761
sI3
F-0.9036363616010905
sI5
F-0.9715355884752069
sI6
F-0.9075816924727518
sI7
F-0.9904074351187253
sI8
F-0.7017388148814636
ss(I2
I2
I1
I1
I1
I0
I2
I0
I0
tp123
(dp124
I5
F0.9999999999999996
sI7
F0.040190392531606736
sI8
F0.14116888671035543
ss(I2
I0
I1
I0
I2
I2
I1
I0
I1
tp125
(dp126
I1
F-0.8473613379388798
sI3
F0.015223538726662907
sI7
F0.9999999999999996
ss(I2
I1
I1
I0
I2
I2
I1
I0
I1
tp127
(dp128
I3
F0.9999999999999996
sI7
F3.791662080114956e-25
ss(I2
I0
I0
I0
I0
I1
I0
I0
I0
tp129
(dp130
I1
F-0.5017218252466356
sI2
F0.7072830472863201
sI3
F-0.446265607678668
sI4
F-0.03413273138599336
sI6
F0.12853878237575384
sI7
F-0.5295766476837258
sI8
F-0.046407918928923736
ss(I2
I1
I0
I0
I0
I1
I0
I0
I0
tp131
(dp132
I2
F-0.552975056156177
sI3
F-0.6826080652916998
sI4
F0.08703511371402105
sI6
F0.6022943877880759
sI7
F-0.08573982669275355
sI8
F-0.8245477111124538
ss(I2
I1
I2
I1
I0
I0
I0
I0
I0
tp133
(dp134
I4
F0.8820250592778822
sI5
F-0.03752281179
sI6
F-0.21333739403737048
sI7
F-0.03431547453494608
sI8
F0.06306555949517903
ss(I2
I2
I1
I1
I1
I0
I2
I1
I2
tp135
(dp136
I5
F0.9999999999999996
ss(I1
I2
I1
I2
I2
I0
I1
I0
I1
tp137
(dp138
I5
F0.9999860253417776
sI7
F0.6893275098709001
ss(I1
I2
I1
I0
I2
I0
I0
I1
I0
tp139
(dp140
I3
F0.05568937509325556
sI5
F-0.34964914574180533
sI6
F-0.1801496028668928
sI8
F-0.165530353924324
ss(I2
I0
I1
I0
I0
I0
I0
I1
I0
tp141
(dp142
I1
F-0.7625741794022032
sI3
F-0.5455942835819343
sI4
F-0.4507828580531888
sI5
F-0.4533425811030608
sI6
F-0.16256363802422827
sI8
F-0.7601767804857655
ss(I2
I2
I1
I0
I0
I0
I0
I1
I0
tp143
(dp144
I3
F0.8144409462909744
sI4
F0.09860224268969084
sI5
F0.38127674592669186
sI6
F0.5843999537478409
sI8
F0.5585436963581216
ss(I2
I2
I1
I1
I0
I0
I0
I1
I0
tp145
(dp146
I4
F-0.9550936758936753
sI5
F-0.9313934677255006
sI6
F-0.9635648142991937
sI8
F-0.77261264980155
ss(I2
I2
I1
I1
I2
I0
I0
I1
I0
tp147
(dp148
I5
F-0.7702077346691512
sI6
F-0.7255231860925994
sI8
F0.9999999999999991
ss(I2
I2
I1
I1
I2
I1
I0
I1
I0
tp149
(dp150
I6
F-0.9999731729871234
sI8
F0.9999999999999996
ss(I2
I2
I1
I1
I2
I1
I2
I1
I0
tp151
(dp152
I8
F0.9999999999999996
ss(I2
I0
I1
I0
I0
I2
I0
I0
I1
tp153
(dp154
I1
F-0.7224922742982025
sI3
F0.08607623674856889
sI4
F-0.05615413940458481
sI6
F0.9157208704645217
sI7
F0.07165879319067951
ss(I2
I2
I0
I1
I1
I0
I1
I2
I1
tp155
(dp156
I2
F0.9999999999978745
sI5
F-0.9274923032431229
ss(I1
I0
I0
I0
I0
I2
I0
I0
I0
tp157
(dp158
I1
F-0.5411097462229613
sI2
F0.850899790704352
sI3
F0.10062717845849596
sI4
F0.3431440778414708
sI6
F0.6392411323710908
sI7
F0.07500163658232532
sI8
F0.2907178963749176
ss(I1
I1
I0
I0
I0
I2
I0
I0
I0
tp159
(dp160
I2
F0.7987152311162846
sI3
F-0.7160191421901212
sI4
F-0.5291411524104098
sI6
F-0.783130899304754
sI7
F-0.874653432042259
sI8
F-0.7846556688897955
ss(I2
I2
I1
I1
I2
I0
I1
I0
I1
tp161
(dp162
I5
F-0.9999230608784736
sI7
F0.9999999999999996
ss(I2
I2
I1
I1
I2
I2
I1
I0
I1
tp163
(dp164
I7
F0.9999999999999996
ss(I1
I2
I0
I1
I0
I0
I0
I0
I0
tp165
(dp166
I2
F-0.9290754535401085
sI4
F-0.6037108165553404
sI5
F-0.9119045259079942
sI6
F-0.8414169885359993
sI7
F-0.9546330894214811
sI8
F-0.8978476528945821
ss(I2
I2
I1
I0
I0
I1
I0
I0
I0
tp167
(dp168
I3
F0.7041675459351394
sI4
F0.8326140192162769
sI6
F0.6831492117449468
sI7
F0.5714498988893318
sI8
F0.9999999999999996
ss(I2
I2
I1
I0
I1
I1
I0
I0
I0
tp169
(dp170
I3
F-0.9999365841859835
sI6
F-0.8056113120855052
sI7
F-0.9999307547906262
sI8
F-0.9998991110297922
ss(I2
I2
I1
I2
I1
I1
I0
I0
I0
tp171
(dp172
I6
F0.9999999999999996
sI7
F-0.8274406730529134
sI8
F0.9999999999872546
ss(I2
I2
I1
I0
I0
I1
I1
I0
I0
tp173
(dp174
I3
F-0.8205091469310849
sI4
F-0.7878237886592188
sI7
F-0.7013786744961427
sI8
F-0.7817413586427152
ss(I2
I2
I1
I2
I0
I1
I1
I0
I0
tp175
(dp176
I4
F0.9995930126664613
sI7
F0.5437638525779008
sI8
F0.27829000000000004
ss(I2
I2
I1
I1
I0
I1
I0
I0
I0
tp177
(dp178
I4
F-0.7920499565844045
sI6
F-0.7920499565844045
sI7
F-0.7891815676927378
sI8
F-0.7787624856812643
ss(I2
I2
I1
I1
I2
I1
I0
I0
I0
tp179
(dp180
I6
F-0.6087053061100001
sI7
F-0.49395355133877106
sI8
F0.9999999997564644
ss(I1
I0
I0
I0
I2
I0
I0
I0
I0
tp181
(dp182
I1
F-0.11496249260539139
sI2
F-0.16863608686503284
sI3
F-0.1990809371395653
sI5
F-0.03653010325074534
sI6
F-0.33166304169933913
sI7
F-0.2580731770731733
sI8
F-0.18587418594168784
ss(I1
I0
I0
I0
I2
I0
I0
I0
I1
tp183
(dp184
I1
F0.2257972879919772
sI2
F-0.25347418946679556
sI3
F-0.06874716708333332
sI5
F-0.21121805984101305
sI6
F-0.5384470289583282
sI7
F-0.146664237501165
ss(I1
I2
I0
I0
I2
I0
I0
I0
I1
tp185
(dp186
I2
F-0.505925667084812
sI3
F-0.8910674402071014
sI5
F-0.9881797777052329
sI6
F-0.8675902583420426
sI7
F0.09188287838633966
ss(I2
I2
I1
I1
I0
I1
I0
I2
I0
tp187
(dp188
I4
F0.9694058771611936
sI6
F-0.337339
sI8
F0.27829000000000004
ss(I2
I2
I1
I1
I0
I1
I2
I0
I0
tp189
(dp190
I4
F0.9966524220056124
sI7
F0.4739166930186085
sI8
F0.27829000000000004
ss(I2
I1
I1
I0
I0
I2
I0
I0
I0
tp191
(dp192
I3
F-0.324786011783777
sI4
F0.6982775553932128
sI6
F-0.6778040803873928
sI7
F-0.554962944883092
sI8
F-0.7212979728150759
ss(I2
I1
I1
I1
I0
I2
I0
I0
I0
tp193
(dp194
I4
F0.1108718359463686
sI6
F-0.09903063216736652
sI7
F-0.032192447316633024
sI8
F-0.47799783203865354
ss(I2
I1
I1
I1
I2
I2
I0
I0
I0
tp195
(dp196
I6
F-0.927717073886172
sI7
F-0.7807059813971742
sI8
F1.1670516635088216e-40
ss(I2
I1
I1
I1
I2
I2
I1
I0
I0
tp197
(dp198
I7
F1.4947654752210046e-17
sI8
F0.9999999999999996
ss(I2
I1
I1
I1
I2
I2
I1
I2
I0
tp199
(dp200
I8
F2.138197391840985e-28
ss(I1
I2
I0
I1
I0
I2
I0
I0
I0
tp201
(dp202
I2
F0.18201130084089037
sI4
F0.6859870763437853
sI6
F0.9999976694208562
sI7
F0.06811263729423489
sI8
F0.6431835555290386
ss(I2
I2
I1
I1
I0
I1
I0
I0
I2
tp203
(dp204
I4
F0.994897762544753
sI6
F-0.337339
sI7
F-0.337339
ss(I2
I1
I0
I0
I2
I0
I1
I2
I1
tp205
(dp206
I2
F0.041439112767559884
sI3
F4.077267993852305e-101
sI5
F0.011779082311947346
ss(I2
I1
I1
I0
I2
I0
I1
I2
I1
tp207
(dp208
I3
F-0.9999999999999996
sI5
F2e-323
ss(I2
I2
I0
I1
I1
I0
I1
I0
I0
tp209
(dp210
I2
F0.9999999999999996
sI5
F-0.8306756052551483
sI7
F-0.981435008850402
sI8
F-0.9511267696799446
ss(I2
I2
I0
I1
I0
I1
I1
I0
I0
tp211
(dp212
I2
F0.998023288670094
sI4
F0.2782899831227901
sI7
F-0.054512659000000005
sI8
F-0.43831279000000006
ss(I2
I1
I0
I0
I0
I0
I1
I0
I0
tp213
(dp214
I2
F-0.6515617368768645
sI3
F-0.9131724800756359
sI4
F-0.2531759160706667
sI5
F-0.7643800071423611
sI7
F-0.307828134125869
sI8
F-0.4580351037627527
ss(I2
I1
I2
I0
I0
I0
I1
I0
I0
tp215
(dp216
I3
F-0.4962312741103893
sI4
F0.029352871371850504
sI5
F0.06210791529700922
sI7
F0.9499542668013922
sI8
F0.013339710425162795
ss(I2
I1
I2
I1
I0
I0
I1
I0
I0
tp217
(dp218
I4
F-0.03435962741853566
sI5
F0.004365327340419261
sI7
F-0.12680710385604196
sI8
F0.5487009756787213
ss(I2
I1
I2
I1
I2
I0
I1
I0
I0
tp219
(dp220
I5
F-0.8334085114292887
sI7
F-0.6708392513793802
sI8
F0.13714416975445706
ss(I2
I1
I2
I1
I2
I1
I1
I0
I0
tp221
(dp222
I7
F3.272426261628289e-14
sI8
F0.9999999999999996
ss(I2
I1
I2
I1
I2
I1
I1
I2
I0
tp223
(dp224
I8
F2e-323
ss(I2
I2
I0
I1
I0
I0
I1
I1
I0
tp225
(dp226
I2
F0.9998965492804315
sI4
F-0.26371
sI5
F-0.2595615408409296
sI8
F0.18241381667175505
ss(I2
I1
I0
I1
I0
I0
I0
I0
I0
tp227
(dp228
I2
F-0.6831111329655185
sI4
F0.09524164695240521
sI5
F-0.15355220442734743
sI6
F-0.6736048713342906
sI7
F-0.12303545759786365
sI8
F-0.6450077458775862
ss(I2
I1
I2
I1
I1
I0
I2
I0
I0
tp229
(dp230
I5
F0.9999999999999988
sI7
F0.9360352892966559
sI8
F0.8514063109930945
ss(I2
I1
I2
I1
I1
I0
I0
I2
I0
tp231
(dp232
I5
F0.9999999999999996
sI6
F0.14433565207557392
sI8
F0.093549075985882
ss(I2
I1
I2
I1
I1
I0
I0
I0
I2
tp233
(dp234
I5
F0.9999999999999996
sI6
F-0.9485362321089792
sI7
F0.9999960531437557
ss(I2
I1
I2
I1
I0
I0
I0
I0
I1
tp235
(dp236
I4
F-0.2538248168058712
sI5
F-0.9068253874982495
sI6
F-0.5658275538478916
sI7
F-0.09117072724759565
ss(I2
I1
I2
I1
I2
I0
I0
I0
I1
tp237
(dp238
I5
F-0.9166688281630012
sI6
F0.07991391494761474
sI7
F-0.8735303420600252
ss(I2
I1
I2
I1
I2
I0
I0
I1
I1
tp239
(dp240
I5
F-0.999999926522758
sI6
F0.9999999999999996
ss(I2
I1
I0
I1
I2
I0
I0
I0
I0
tp241
(dp242
I2
F-0.9405702009128531
sI5
F-0.7940179235322639
sI6
F-0.931869375063789
sI7
F-0.991412296124969
sI8
F0.018521372967788878
ss(I2
I1
I1
I1
I2
I0
I0
I0
I0
tp243
(dp244
I5
F0.13773642605224243
sI6
F0.026383781801660372
sI7
F0.056888630891253525
sI8
F0.9999999999999996
ss(I2
I1
I0
I1
I2
I1
I0
I0
I0
tp245
(dp246
I2
F0.8896300582945162
sI6
F0.7890928675145076
sI7
F0.11566792995531472
sI8
F0.9999999999999996
ss(I2
I1
I2
I1
I2
I1
I0
I0
I0
tp247
(dp248
I6
F-0.9567563084196629
sI7
F-0.952427700157813
sI8
F-0.8668888755722651
ss(I0
I2
I0
I1
I0
I0
I0
I0
I0
tp249
(dp250
I0
F0.5437529832969309
sI2
F0.2845652967981855
sI4
F0.7358195277049991
sI5
F-0.42176022605467867
sI6
F-0.38284524080689813
sI7
F0.08620970804290631
sI8
F0.06294448164912922
ss(I2
I2
I0
I1
I1
I0
I0
I0
I0
tp251
(dp252
I2
F0.8766657308132809
sI5
F0.9999999999999996
sI6
F-0.556817369113881
sI7
F-0.7087116427255645
sI8
F-0.6132928372466404
ss(I2
I2
I1
I1
I1
I0
I0
I2
I0
tp253
(dp254
I5
F0.999999999999985
sI6
F0.9025076806838226
sI8
F0.8894668188837048
ss(I2
I2
I1
I1
I1
I0
I0
I0
I2
tp255
(dp256
I5
F0.9999999999999686
sI6
F0.9622294779767824
sI7
F0.9360352892965642
ss(I2
I1
I0
I0
I1
I2
I0
I0
I0
tp257
(dp258
I2
F0.7298141305324215
sI3
F0.16108207646652717
sI6
F0.9835789142322139
sI7
F0.9999999999999996
sI8
F0.2784331155608374
ss(I2
I1
I1
I0
I1
I2
I0
I0
I0
tp259
(dp260
I3
F-0.9914775964992182
sI6
F-0.7520402634644353
sI7
F-0.9957656635405334
sI8
F-0.999999999892947
ss(I2
I2
I0
I1
I1
I0
I1
I2
I0
tp261
(dp262
I2
F0.9999999999999996
sI5
F0.9943308472719479
sI8
F-0.8913933054675747
ss(I2
I1
I1
I0
I1
I2
I2
I0
I0
tp263
(dp264
I3
F0.052444591805417044
sI7
F0.9999999999999996
sI8
F-0.7787274799400494
ss(I2
I1
I2
I1
I1
I0
I1
I2
I0
tp265
(dp266
I5
F2e-323
sI8
F-0.9999999999999996
ss(I2
I2
I0
I1
I1
I2
I2
I1
I1
tp267
(dp268
I2
F2e-323
ss(I2
I1
I1
I0
I1
I2
I0
I2
I0
tp269
(dp270
I3
F0.09104667971827168
sI6
F0.9999999999999996
sI8
F0.008644989334500666
ss(I2
I1
I1
I1
I1
I2
I0
I2
I0
tp271
(dp272
I6
F2e-323
sI8
F-0.9999999999999996
ss(I2
I2
I1
I0
I1
I1
I2
I1
I2
tp273
(dp274
I3
F0.9999999999999996
ss(I2
I1
I0
I0
I1
I0
I0
I0
I2
tp275
(dp276
I2
F0.9042712258478703
sI3
F0.9393006185469175
sI5
F0.8659336386653758
sI6
F0.9940967968310365
sI7
F0.9999999999999996
ss(I2
I1
I1
I0
I1
I0
I0
I0
I2
tp277
(dp278
I3
F-0.944669569060065
sI5
F-0.9999999999999996
sI6
F-0.944151941780751
sI7
F-0.9429600124889607
ss(I2
I2
I0
I1
I1
I0
I1
I0
I2
tp279
(dp280
I2
F0.9999999999999996
sI5
F0.9999945859310778
sI7
F-0.9882149297015861
ss(I2
I1
I0
I0
I1
I0
I2
I0
I0
tp281
(dp282
I2
F-0.6039716357945114
sI3
F0.728175372828155
sI5
F-0.9048625560320697
sI7
F0.9999999999999996
sI8
F-0.7747653791019358
ss(I2
I1
I1
I0
I1
I0
I2
I0
I0
tp283
(dp284
I3
F0.9999999999999996
sI5
F-0.7520385897002497
sI7
F0.7169511890532801
sI8
F-0.7822502799679847
ss(I2
I1
I0
I0
I1
I2
I0
I0
I1
tp285
(dp286
I2
F-0.8070563268785745
sI3
F-0.8522715543584045
sI6
F-0.9730175962669074
sI7
F-0.16336503303871336
ss(I2
I2
I0
I1
I1
I0
I0
I2
I1
tp287
(dp288
I2
F0.973727068924238
sI5
F0.9999999999999996
sI6
F-0.6544172943198068
ss(I0
I1
I0
I0
I2
I0
I0
I0
I0
tp289
(dp290
I0
F0.04775425711445455
sI2
F-0.14608520243032255
sI3
F-0.10452737898304756
sI5
F-0.022570461441562356
sI6
F-0.13306688032228053
sI7
F-0.8562770084233107
sI8
F-0.10259613048644463
ss(I1
I1
I0
I0
I2
I0
I0
I0
I0
tp291
(dp292
I2
F0.04832629002627578
sI3
F-0.9765156807934452
sI5
F-0.6708689934040404
sI6
F-0.7083170652490889
sI7
F-0.8279980488766299
sI8
F-0.9634260100377243
ss(I2
I1
I1
I0
I2
I0
I0
I0
I0
tp293
(dp294
I3
F-0.950647362478989
sI5
F-0.9021577678233808
sI6
F-0.9216679833644364
sI7
F-0.9996391490073554
sI8
F0.2889921541056614
ss(I2
I1
I0
I0
I1
I2
I2
I0
I1
tp295
(dp296
I2
F-0.807584640306607
sI3
F0.06650256655505697
sI7
F0.9999999999999996
ss(I2
I1
I1
I0
I1
I2
I2
I0
I1
tp297
(dp298
I3
F0.9999999999999996
sI7
F9.979388823371084e-10
ss(I2
I1
I0
I0
I1
I0
I0
I2
I0
tp299
(dp300
I2
F-0.48687315019777144
sI3
F0.35318256039486035
sI5
F0.12836032285755636
sI6
F0.10163088360526845
sI8
F-0.05134414716246549
ss(I2
I1
I0
I0
I1
I1
I0
I2
I0
tp301
(dp302
I2
F-0.883535071845181
sI3
F-0.2488733500048526
sI6
F-0.851829183499938
sI8
F-0.9475287826992551
ss(I2
I2
I1
I1
I0
I2
I1
I0
I0
tp303
(dp304
I4
F0.9997596780494187
sI7
F0.47346849053856654
sI8
F0.526464435299068
ss(I2
I1
I2
I1
I2
I1
I0
I1
I0
tp305
(dp306
I6
F0.7961677792262976
sI8
F0.9999983010078042
ss(I2
I2
I0
I1
I1
I2
I0
I1
I0
tp307
(dp308
I2
F0.39267775265981764
sI6
F-0.9119475571335229
sI8
F-0.9947570722574381
ss(I2
I2
I1
I1
I1
I2
I0
I1
I0
tp309
(dp310
I6
F2e-323
sI8
F-0.9999999999999996
ss(I2
I2
I0
I1
I1
I2
I1
I1
I0
tp311
(dp312
I2
F0.9999999999999996
sI8
F-0.9999999999999996
ss(I2
I2
I0
I1
I0
I1
I1
I2
I1
tp313
(dp314
I2
F0.9930010460147505
sI4
F0.47387341000000005
ss(I2
I2
I0
I1
I1
I2
I0
I1
I1
tp315
(dp316
I2
F0.9999999999999996
sI6
F4.7436576992449634e-31
ss(I2
I0
I0
I0
I0
I1
I0
I1
I0
tp317
(dp318
I1
F-0.3034151959434458
sI2
F0.4665809418724542
sI3
F-0.39286622609964594
sI4
F-0.16033578635144674
sI6
F0.326445718874088
sI8
F-0.527407733358934
ss(I2
I2
I0
I0
I0
I1
I0
I1
I0
tp319
(dp320
I2
F0.798864645678936
sI3
F-0.1819
sI4
F-0.26371
sI6
F-0.4036051
sI8
F-0.24029290000000003
ss(I2
I2
I0
I0
I0
I1
I1
I1
I0
tp321
(dp322
I2
F0.9622294779767824
sI3
F-0.16269506192268007
sI4
F-0.09100000000000001
sI8
F0.195346134258883
ss(I2
I2
I1
I1
I1
I2
I0
I1
I2
tp323
(dp324
I6
F0.9999999999999996
ss(I2
I2
I0
I0
I1
I1
I2
I1
I0
tp325
(dp326
I2
F-0.7048126577149952
sI3
F0.9999999999999996
sI8
F-0.9999999999801816
ss(I2
I1
I0
I0
I1
I0
I1
I2
I0
tp327
(dp328
I2
F-0.07595933016773333
sI3
F-0.9508582843633361
sI5
F-0.870295273394608
sI8
F-0.9999999999999996
ss(I2
I1
I2
I0
I1
I0
I1
I2
I0
tp329
(dp330
I3
F0.09549553401884421
sI5
F0.012178576862566945
sI8
F4e-323
ss(I1
I2
I0
I1
I2
I0
I0
I0
I0
tp331
(dp332
I2
F-0.936972673078505
sI5
F-0.9551462298324462
sI6
F0.9999999999999996
sI7
F0.23300929188613523
sI8
F-0.8184177629284579
ss(I2
I2
I0
I1
I1
I0
I0
I1
I2
tp333
(dp334
I2
F0.9999999999999991
sI5
F0.9999999999993997
sI6
F-0.975900121602622
ss(I2
I2
I1
I1
I1
I0
I0
I1
I2
tp335
(dp336
I5
F-0.9999999999999996
sI6
F-0.9999999999999996
ss(I0
I2
I0
I0
I0
I0
I0
I1
I0
tp337
(dp338
I0
F0.15802374834064123
sI2
F0.19412347222623616
sI3
F0.17674403231543814
sI4
F0.15699897546339506
sI5
F0.07096008459597525
sI6
F0.06423502432231407
sI8
F0.1508290899033012
ss(I1
I2
I0
I0
I0
I0
I0
I1
I0
tp339
(dp340
I2
F-0.7559471784331872
sI3
F-0.8172391330842557
sI4
F-0.7353644381535127
sI5
F-0.6041499092433111
sI6
F-0.14127263758704256
sI8
F-0.3941145865924655
ss(I2
I2
I1
I0
I0
I0
I0
I1
I1
tp341
(dp342
I3
F-0.71474616815419
sI4
F-0.7245555997800777
sI5
F-0.6940921812257872
sI6
F-0.7213293115167293
ss(I2
I2
I1
I0
I0
I2
I0
I1
I1
tp343
(dp344
I3
F0.07543236006897516
sI4
F0.005904900000000001
sI6
F0.9853669258879797
ss(I2
I2
I1
I1
I0
I2
I0
I1
I1
tp345
(dp346
I4
F-0.337339
sI6
F0.0007976644307687252
ss(I2
I2
I1
I1
I0
I2
I2
I1
I1
tp347
(dp348
I4
F2.8010824348271586e-31
ss(I2
I1
I1
I0
I1
I0
I2
I0
I2
tp349
(dp350
I3
F-0.9038474287409214
sI5
F-0.9999999999999918
sI7
F0.9999999999999996
ss(I2
I1
I2
I1
I1
I0
I1
I0
I2
tp351
(dp352
I5
F0.9999999999999996
sI7
F-0.9999997892693281
ss(I2
I1
I0
I0
I0
I0
I0
I0
I1
tp353
(dp354
I2
F-0.29328645763423294
sI3
F-0.5873370887788821
sI4
F-0.17614606940203073
sI5
F-0.32054580070100624
sI6
F0.04372369907425591
sI7
F-0.37434744859297814
ss(I2
I1
I0
I0
I0
I0
I0
I2
I1
tp355
(dp356
I2
F0.13250762400795163
sI3
F0.016948587039697052
sI4
F-0.049858472704305073
sI5
F0.4596042882087632
sI6
F0.020571574497682234
ss(I2
I1
I1
I0
I0
I0
I0
I2
I1
tp357
(dp358
I3
F-0.6777894597881576
sI4
F-0.8210204373680957
sI5
F-0.05013658993853958
sI6
F-0.8020188918933838
ss(I2
I2
I1
I0
I0
I0
I2
I1
I1
tp359
(dp360
I3
F0.0024690572698918066
sI4
F-0.539178054499
sI5
F0.9999999773986556
ss(I2
I2
I1
I1
I0
I0
I2
I1
I1
tp361
(dp362
I4
F-0.5652281179
sI5
F1.9966781110160346e-05
ss(I2
I2
I1
I1
I2
I0
I2
I1
I1
tp363
(dp364
I5
F0.9999999999999996
ss(I2
I0
I0
I0
I1
I1
I0
I0
I0
tp365
(dp366
I1
F-0.604932497003145
sI2
F-0.939192731990022
sI3
F0.016786489659819576
sI6
F-0.5381469936446828
sI7
F-0.9864028964905402
sI8
F-0.9938277117058449
ss(I2
I2
I0
I0
I1
I1
I0
I0
I0
tp367
(dp368
I2
F0.7941473811777694
sI3
F0.9999999999999996
sI6
F-0.8219331071253807
sI7
F-0.9104728609440923
sI8
F-0.5779320270792808
ss(I2
I2
I1
I0
I1
I1
I2
I0
I0
tp369
(dp370
I3
F0.9999999999999996
sI7
F-0.9329829892341094
sI8
F0.9999999999999996
ss(I2
I1
I2
I1
I2
I0
I1
I1
I0
tp371
(dp372
I5
F-0.9998014066790196
sI8
F0.9999999999999996
ss(I2
I2
I0
I1
I2
I1
I2
I1
I1
tp373
(dp374
I2
F0.9999999999999996
ss(I2
I2
I1
I0
I1
I1
I0
I0
I2
tp375
(dp376
I3
F0.9999999999999996
sI6
F0.9752187605005669
sI7
F0.9961093914524933
ss(I1
I2
I1
I0
I0
I0
I0
I2
I0
tp377
(dp378
I3
F-0.7348304033397712
sI4
F0.8648490837151435
sI5
F-0.6793590374120464
sI6
F-0.8452273776786596
sI8
F-0.9188084666298815
ss(I1
I2
I1
I1
I0
I0
I0
I2
I0
tp379
(dp380
I4
F0.9994975465018041
sI5
F0.012280011536576887
sI6
F0.2966752322225449
sI8
F-0.34246669543535113
ss(I1
I2
I0
I0
I2
I0
I0
I1
I0
tp381
(dp382
I2
F-0.15257516244664648
sI3
F-0.13234077416684484
sI5
F0.13908747039870578
sI6
F0.8545808326929231
sI8
F0.07836146402416717
ss(I2
I1
I2
I1
I1
I0
I0
I2
I1
tp383
(dp384
I5
F2e-323
sI6
F-0.9999999999999996
ss(I2
I1
I1
I1
I2
I2
I0
I0
I1
tp385
(dp386
I6
F2e-323
sI7
F2e-323
ss(I2
I1
I2
I1
I2
I0
I1
I2
I1
tp387
(dp388
I5
F2e-323
ss(I0
I2
I0
I1
I0
I0
I0
I1
I0
tp389
(dp390
I0
F-0.6187276723056253
sI2
F-0.41673860299522003
sI4
F-0.6717465111629888
sI5
F-0.6426593421131808
sI6
F-0.08260595686611508
sI8
F-0.2666725908902139
ss(I2
I2
I0
I1
I0
I0
I0
I1
I0
tp391
(dp392
I2
F0.8062465453736014
sI4
F-0.4036051
sI5
F-0.1819
sI6
F-0.3332097947351748
sI8
F-0.337339
ss(I1
I2
I0
I1
I2
I1
I0
I0
I0
tp393
(dp394
I2
F-0.8208536322375839
sI6
F0.9806315548904778
sI7
F0.9999999999999996
sI8
F-0.9366268416797016
ss(I0
I2
I0
I1
I1
I0
I0
I0
I0
tp395
(dp396
I0
F-0.7617501453323826
sI2
F-0.9843049666300677
sI5
F-0.5929791617950118
sI6
F-0.9244822950868126
sI7
F-0.9964473590355573
sI8
F-0.9183336331994775
ss(I0
I2
I0
I1
I0
I1
I0
I0
I0
tp397
(dp398
I0
F-0.29423497251958164
sI2
F-0.26409568907351444
sI4
F0.7475172680375544
sI6
F-0.2966987107610381
sI7
F-0.44851304548
sI8
F-0.204813388015792
ss(I2
I2
I0
I1
I0
I1
I0
I0
I0
tp399
(dp400
I2
F0.8966152266410551
sI4
F0.1981
sI6
F-0.09010647107033441
sI7
F-0.337339
sI8
F-0.26371
ss(I0
I2
I0
I2
I1
I1
I0
I0
I0
tp401
(dp402
I0
F0.3069957518949191
sI2
F0.8226583208158327
sI6
F0.18882087971990127
sI7
F-0.7742370498770622
sI8
F0.5066862051602152
ss(I1
I2
I0
I2
I1
I1
I0
I0
I0
tp403
(dp404
I2
F-0.982595559521273
sI6
F-0.8855910726082545
sI7
F-0.9997126044284635
sI8
F-0.011480067153327233
ss(I2
I2
I1
I0
I1
I2
I0
I1
I0
tp405
(dp406
I3
F0.192048917587879
sI6
F0.9999999999999996
sI8
F0.043339321736413486
ss(I1
I2
I0
I2
I1
I2
I0
I1
I0
tp407
(dp408
I2
F0.9999999999071595
sI6
F0.7937120099331684
sI8
F0.8165510013036678
ss(I1
I2
I1
I2
I1
I1
I0
I2
I0
tp409
(dp410
I6
F-0.9999999999999996
sI8
F-0.9999999999999996
ss(I2
I2
I1
I2
I1
I2
I0
I1
I1
tp411
(dp412
I6
F0.9999999999999996
ss(I1
I2
I1
I2
I1
I2
I0
I1
I0
tp413
(dp414
I6
F-0.9999993284781503
sI8
F-0.9999993284781503
ss(I2
I1
I0
I0
I1
I2
I0
I2
I1
tp415
(dp416
I2
F0.014407181965531335
sI3
F2.026685813482601e-35
sI6
F0.119877918120612
ss(I2
I1
I1
I0
I1
I2
I0
I2
I1
tp417
(dp418
I3
F-0.9999999999999996
sI6
F1.304e-321
ss(I2
I2
I0
I1
I1
I2
I1
I2
I1
tp419
(dp420
I2
F0.9999999999999996
ss(I2
I2
I1
I0
I1
I2
I2
I1
I1
tp421
(dp422
I3
F2e-323
ss(I2
I1
I1
I0
I2
I1
I0
I0
I0
tp423
(dp424
I3
F-0.48286559197267825
sI6
F-0.5604378521819187
sI7
F-0.7313156160346992
sI8
F0.9999999999999996
ss(I2
I2
I0
I1
I2
I0
I1
I1
I0
tp425
(dp426
I2
F-0.7002343372880737
sI5
F-0.9999701922079149
sI8
F0.9999999999999996
ss(I2
I2
I0
I1
I2
I1
I1
I1
I0
tp427
(dp428
I2
F0.9999999999999996
sI8
F0.9997033062338503
ss(I0
I1
I0
I0
I2
I0
I0
I1
I0
tp429
(dp430
I0
F0.689547347200782
sI2
F0.6809445689966354
sI3
F0.6141167392468557
sI5
F0.8366490992679149
sI6
F0.46152241669443184
sI8
F0.43429034237639896
ss(I2
I1
I0
I0
I2
I0
I0
I1
I0
tp431
(dp432
I2
F-0.9977033229209108
sI3
F-0.9305464112710634
sI5
F-0.9868513114821741
sI6
F-0.935075771944727
sI8
F-0.7493866231988103
ss(I2
I1
I1
I0
I2
I0
I0
I1
I0
tp433
(dp434
I3
F0.999999293651335
sI5
F0.9216037526216241
sI6
F0.9355125193668565
sI8
F0.9999999999999996
ss(I2
I2
I0
I1
I2
I1
I1
I0
I0
tp435
(dp436
I2
F-0.9999999999999996
sI7
F-0.9999999999999996
sI8
F-0.9999999999999996
ss(I2
I2
I0
I1
I2
I1
I1
I0
I1
tp437
(dp438
I2
F0.9999999999999996
sI7
F0.9993796870392644
ss(I2
I1
I1
I0
I2
I1
I2
I0
I0
tp439
(dp440
I3
F-0.6127421814214282
sI7
F-0.9957836965028916
sI8
F0.9999999999999996
ss(I1
I0
I0
I0
I2
I1
I0
I0
I0
tp441
(dp442
I1
F-0.026023328988676833
sI2
F-0.25200503335233837
sI3
F-0.6470931194920589
sI6
F-0.5533310299376282
sI7
F-0.12338987481654866
sI8
F-0.19041790580690252
ss(I1
I2
I0
I0
I2
I1
I0
I0
I0
tp443
(dp444
I2
F-0.9459716503188279
sI3
F-0.9738831458524793
sI6
F-0.7158130658414636
sI7
F0.0676249605114913
sI8
F-0.7168329710208867
ss(I1
I2
I0
I0
I2
I1
I1
I0
I0
tp445
(dp446
I2
F-0.7885354739461417
sI3
F0.041433180951403074
sI7
F0.9999999999999996
sI8
F-0.7510803087682071
ss(I2
I1
I1
I0
I2
I0
I1
I0
I0
tp447
(dp448
I3
F0.876356786614809
sI5
F0.686596042267378
sI7
F0.08851620625142571
sI8
F0.9999999999999996
ss(I2
I1
I0
I0
I2
I1
I1
I2
I1
tp449
(dp450
I2
F2e-323
sI3
F-0.9999999999999996
ss(I2
I1
I1
I0
I2
I1
I2
I1
I0
tp451
(dp452
I3
F0.9999999999872546
sI8
F0.9533697258972622
ss(I0
I1
I0
I1
I2
I0
I0
I0
I0
tp453
(dp454
I0
F0.11708432960426884
sI2
F-0.07580365358166581
sI5
F-0.5983493091081836
sI6
F-0.06796984522172593
sI7
F-0.7282091200294579
sI8
F-0.21097944050435932
ss(I2
I1
I2
I1
I2
I0
I0
I1
I0
tp455
(dp456
I5
F-0.9999731729871234
sI6
F-0.9008914783193601
sI8
F-0.806607591001575
ss(I2
I1
I0
I1
I2
I0
I0
I0
I1
tp457
(dp458
I2
F-0.04637720733328315
sI5
F-0.10501200517821026
sI6
F0.046758464933058616
sI7
F-0.1307213035527506
ss(I2
I1
I0
I1
I2
I2
I0
I0
I1
tp459
(dp460
I2
F6.333464829055807e-53
sI6
F0.0873906281712786
sI7
F0.051062248325433525
ss(I2
I1
I0
I0
I2
I1
I0
I0
I0
tp461
(dp462
I2
F-0.7388683220384817
sI3
F-0.8233647669024055
sI6
F-0.7934112881047082
sI7
F-0.9735434075317855
sI8
F0.14474968053532902
ss(I2
I1
I2
I1
I2
I0
I1
I0
I1
tp463
(dp464
I5
F-0.9999999999999996
sI7
F2e-323
ss(I0
I2
I0
I1
I2
I0
I0
I1
I0
tp465
(dp466
I0
F0.11215336116313222
sI2
F0.018934274601259387
sI5
F-0.8571636235015831
sI6
F0.7742732012238267
sI8
F0.17179662261381642
ss(I1
I2
I0
I1
I2
I0
I0
I1
I0
tp467
(dp468
I2
F-0.5906151402473232
sI5
F-0.7736433910483704
sI6
F0.11807745243643114
sI8
F-0.4926395723784065
ss(I2
I2
I1
I0
I2
I1
I0
I1
I0
tp469
(dp470
I3
F-0.38522811790000006
sI6
F-0.337339
sI8
F0.998832771726804
ss(I2
I2
I1
I1
I0
I2
I0
I0
I1
tp471
(dp472
I4
F0.05787923930999997
sI6
F0.9998184784648929
sI7
F0.07151490001498612
ss(I2
I1
I0
I1
I2
I2
I0
I1
I0
tp473
(dp474
I2
F-0.8735740308757398
sI6
F-0.8733897698360336
sI8
F0.012792255748067605
ss(I2
I1
I1
I1
I2
I2
I0
I1
I0
tp475
(dp476
I6
F3.636029179586988e-14
sI8
F0.9999999999999996
ss(I2
I1
I2
I0
I1
I0
I1
I0
I0
tp477
(dp478
I3
F-0.8896016836342222
sI5
F-0.835866014170721
sI7
F-0.09701683202171539
sI8
F-0.9999889079882761
ss(I2
I2
I0
I1
I1
I0
I2
I0
I1
tp479
(dp480
I2
F0.03964137775871024
sI5
F0.9999999999999996
sI7
F-0.9443899417311837
ss(I1
I2
I0
I0
I2
I1
I0
I1
I0
tp481
(dp482
I2
F-0.801106632140827
sI3
F-0.8212324285665639
sI6
F0.0006443715315583786
sI8
F-0.1237115609991264
ss(I2
I1
I1
I1
I2
I1
I0
I2
I0
tp483
(dp484
I6
F-0.9999999997763902
sI8
F0.9999999999999996
ss(I2
I1
I0
I0
I2
I1
I1
I2
I0
tp485
(dp486
I2
F-0.9629927172142962
sI3
F-0.8715072680745032
sI8
F0.07448236805397546
ss(I2
I1
I1
I0
I2
I1
I1
I2
I0
tp487
(dp488
I3
F-0.9999999999999996
sI8
F0.9999999999999996
ss(I2
I2
I1
I0
I2
I1
I1
I1
I0
tp489
(dp490
I3
F-0.9347430729188106
sI8
F0.999999985171258
ss(I2
I2
I1
I2
I2
I1
I1
I1
I0
tp491
(dp492
I8
F0.998832771726804
ss(I2
I1
I0
I0
I2
I0
I1
I0
I0
tp493
(dp494
I2
F-0.8254772843645858
sI3
F-0.8258666224557978
sI5
F-0.7630826922632185
sI7
F-0.5574872460727415
sI8
F0.24010550458726165
ss(I0
I2
I0
I0
I1
I0
I0
I0
I0
tp495
(dp496
I0
F0.7283237446763353
sI2
F0.7169314687256174
sI3
F0.6625198845065219
sI5
F0.6643805786729161
sI6
F0.5614513510517039
sI7
F-0.09737742689115524
sI8
F0.6228043063282096
ss(I2
I2
I1
I1
I2
I0
I0
I1
I1
tp497
(dp498
I5
F-0.9999999999999996
sI6
F-0.9999999999999996
ss(I1
I2
I1
I0
I1
I0
I0
I2
I0
tp499
(dp500
I3
F-0.9998131201359192
sI5
F-0.9990170459184633
sI6
F-0.8447456881188035
sI8
F-0.8821034722927756
ss(I1
I2
I1
I2
I1
I0
I0
I2
I0
tp501
(dp502
I5
F0.9805655601779614
sI6
F0.9999999999999996
sI8
F0.9868302332991817
ss(I1
I0
I0
I0
I0
I2
I0
I1
I0
tp503
(dp504
I1
F-0.7211960536946254
sI2
F-0.5804904584888047
sI3
F-0.6693177880939638
sI4
F0.026709018871379435
sI6
F-0.6524329494658699
sI8
F-0.6427768392200732
ss(I1
I2
I0
I0
I0
I2
I0
I1
I0
tp505
(dp506
I2
F-0.05827725724827359
sI3
F0.35073188712999137
sI4
F0.24041936859428928
sI6
F0.25321259079053376
sI8
F0.8032563186524592
ss(I2
I1
I1
I0
I2
I0
I2
I1
I0
tp507
(dp508
I3
F-0.9995049878038381
sI5
F-0.9999999848716874
sI8
F-0.9930024603846139
ss(I2
I1
I1
I0
I2
I0
I2
I1
I1
tp509
(dp510
I3
F0.9999999999999996
sI5
F4.4296927544561746e-08
ss(I2
I1
I1
I0
I2
I2
I2
I1
I1
tp511
(dp512
I3
F3.2589504524325333e-28
ss(I1
I0
I0
I0
I2
I2
I0
I1
I0
tp513
(dp514
I1
F-0.9534193226572838
sI2
F-0.7052550795786291
sI3
F0.07890547588062076
sI6
F-0.9410626190468123
sI8
F-0.7496504207262104
ss(I1
I1
I0
I0
I2
I2
I0
I1
I0
tp515
(dp516
I2
F0.9999144670084793
sI3
F0.9999997704913474
sI6
F-0.6913700189318199
sI8
F-0.5828308897356921
ss(I2
I1
I0
I0
I2
I1
I0
I1
I0
tp517
(dp518
I2
F0.6945155391862725
sI3
F0.8883197185930868
sI6
F0.8753915911455192
sI8
F0.9999999999984506
ss(I1
I2
I1
I2
I2
I0
I0
I0
I1
tp519
(dp520
I5
F0.9999999999999996
sI6
F-0.986564177406236
sI7
F-0.8675720023434039
ss(I2
I1
I0
I0
I2
I0
I1
I1
I0
tp521
(dp522
I2
F-0.6970920542666292
sI3
F-0.8875783087283751
sI5
F-0.8068505124672928
sI8
F0.9999999999999996
ss(I2
I1
I2
I0
I2
I0
I1
I1
I0
tp523
(dp524
I3
F-0.66295514942203
sI5
F-0.8988787412956858
sI8
F0.9999999999999994
ss(I2
I1
I0
I0
I2
I2
I1
I1
I0
tp525
(dp526
I2
F-0.7689443962048939
sI3
F-0.71474616815419
sI8
F0.9999998644774357
ss(I2
I1
I1
I0
I2
I2
I1
I1
I0
tp527
(dp528
I3
F0.9999945859310778
sI8
F0.7483552829954291
ss(I1
I2
I0
I0
I1
I2
I0
I0
I0
tp529
(dp530
I2
F0.8622662936791909
sI3
F0.7131863902279824
sI6
F0.8680838272292064
sI7
F0.1426881608816406
sI8
F0.9999999999999996
ss(I1
I2
I0
I2
I1
I0
I0
I0
I0
tp531
(dp532
I2
F0.9552994882801198
sI5
F0.18370040910821372
sI6
F0.8475387806200074
sI7
F0.2688458120734484
sI8
F0.9999999999999996
ss(I1
I0
I0
I0
I1
I2
I0
I0
I0
tp533
(dp534
I1
F-0.898513991668647
sI2
F-0.9040512083137839
sI3
F-0.9992921165089131
sI6
F-0.9732084596453625
sI7
F-0.9917910188474466
sI8
F-0.4707737313162739
ss(I2
I0
I1
I0
I1
I2
I0
I2
I1
tp535
(dp536
I1
F0.07617527214132053
sI3
F0.1088374311450753
sI6
F0.9999999999999996
ss(I2
I2
I1
I0
I1
I1
I0
I2
I0
tp537
(dp538
I3
F0.9999999796587901
sI6
F0.8165510013036678
sI8
F0.6548083443010001
ss(I2
I1
I0
I1
I1
I2
I0
I2
I1
tp539
(dp540
I2
F2e-323
sI6
F2e-323
ss(I2
I0
I1
I0
I1
I2
I0
I0
I0
tp541
(dp542
I1
F0.999334480564322
sI3
F0.2243537625572134
sI6
F0.9999999999999996
sI7
F0.7745217132527109
sI8
F0.246782739431914
ss(I2
I0
I1
I0
I1
I2
I0
I0
I1
tp543
(dp544
I1
F-0.9557120699300545
sI3
F-0.47286725985679146
sI6
F0.11637057818840592
sI7
F-0.9046358189683128
ss(I2
I1
I0
I0
I1
I2
I1
I2
I1
tp545
(dp546
I2
F2e-323
sI3
F-0.9999999999999996
ss(I2
I2
I0
I0
I1
I0
I1
I2
I1
tp547
(dp548
I2
F0.9999999999999996
sI3
F-0.7407798267962508
sI5
F-0.69270882911459
ss(I2
I0
I1
I0
I1
I2
I0
I1
I0
tp549
(dp550
I1
F-0.9796948371315122
sI3
F-0.9889505510079188
sI6
F-0.7445806689329563
sI8
F-0.9972336832608756
ss(I2
I2
I0
I0
I1
I1
I1
I2
I0
tp551
(dp552
I2
F0.9999999999996456
sI3
F0.8916752007598029
sI8
F-0.6327676284249298
ss(I2
I0
I2
I0
I1
I0
I1
I2
I1
tp553
(dp554
I1
F3.693318246888969e-162
sI3
F-0.8289137382057014
sI5
F-0.8192496344865712
ss(I2
I1
I2
I0
I1
I0
I1
I2
I1
tp555
(dp556
I3
F2e-323
sI5
F2e-323
ss(I0
I2
I0
I1
I2
I1
I0
I0
I0
tp557
(dp558
I0
F-0.9387876569378382
sI2
F-0.894486918888806
sI6
F-0.8749989944987269
sI7
F-0.865942794955803
sI8
F-0.8719325513927458
ss(I1
I2
I0
I0
I1
I0
I0
I2
I0
tp559
(dp560
I2
F0.6415141988007215
sI3
F0.9756937738371161
sI5
F0.9970279789816019
sI6
F0.9462682912683796
sI8
F0.9999999999999996
ss(I0
I2
I0
I0
I1
I0
I0
I1
I0
tp561
(dp562
I0
F-0.23916462479650752
sI2
F-0.028794860282359072
sI3
F-0.6178595333423221
sI5
F-0.8326301504069862
sI6
F-0.2266378919955571
sI8
F-0.1796713386631782
ss(I2
I2
I0
I0
I1
I0
I0
I1
I0
tp563
(dp564
I2
F0.10765333772709265
sI3
F-0.8187050900812942
sI5
F-0.8505396420892665
sI6
F-0.38711137446160515
sI8
F-0.8755608943988218
ss(I2
I2
I1
I0
I1
I0
I0
I1
I0
tp565
(dp566
I3
F-0.8031173000391735
sI5
F-0.8320533919776066
sI6
F0.037822470049794346
sI8
F-0.9999999999999996
ss(I2
I2
I1
I2
I1
I0
I0
I1
I0
tp567
(dp568
I5
F-0.8408708098479984
sI6
F0.9999999999999996
sI8
F-0.929766321485018
ss(I2
I2
I1
I2
I1
I1
I0
I1
I0
tp569
(dp570
I6
F0.9999999999999996
sI8
F-0.999999940483434
ss(I2
I0
I0
I0
I1
I2
I0
I0
I1
tp571
(dp572
I1
F0.11921798624839935
sI2
F-0.14012556828542688
sI3
F0.0727773747935965
sI6
F0.7235184029915506
sI7
F0.6204384643282708
ss(I2
I0
I1
I0
I1
I0
I0
I2
I1
tp573
(dp574
I1
F-0.9999999950102827
sI3
F-0.9955685806643881
sI5
F-0.9658996832377891
sI6
F-0.6707806726998286
ss(I2
I2
I1
I0
I1
I0
I0
I2
I1
tp575
(dp576
I3
F0.999999999801955
sI5
F0.9999999977742854
sI6
F0.9999999999999996
ss(I2
I2
I0
I0
I1
I2
I1
I0
I1
tp577
(dp578
I2
F0.9999999999999996
sI3
F-0.6380931863321757
sI7
F0.9999999999999996
ss(I2
I1
I0
I0
I1
I0
I0
I2
I1
tp579
(dp580
I2
F-0.10608776812714361
sI3
F0.02753858327292165
sI5
F-0.14143617801476735
sI6
F-0.06579562406265008
ss(I2
I1
I0
I0
I2
I0
I1
I0
I1
tp581
(dp582
I2
F-0.8586246434376708
sI3
F-0.996837064719465
sI5
F-0.5858241186182903
sI7
F-0.037874114129741066
ss(I2
I1
I2
I0
I2
I0
I1
I0
I1
tp583
(dp584
I3
F0.03493097560970324
sI5
F0.16172491209157513
sI7
F0.9999999999999996
ss(I2
I1
I2
I1
I0
I0
I1
I2
I0
tp585
(dp586
I4
F0.19920119143344134
sI5
F0.019718433461229732
sI8
F4.6384641740249017e-05
ss(I2
I1
I1
I0
I1
I1
I2
I0
I2
tp587
(dp588
I3
F0.9999999999999993
sI7
F0.9819344764049133
ss(I2
I2
I0
I0
I1
I0
I1
I0
I0
tp589
(dp590
I2
F0.9999999999999996
sI3
F-0.8745305756745974
sI5
F-0.8551267060949966
sI7
F-0.7998805566249928
sI8
F-0.7765302600169086
ss(I1
I2
I0
I2
I2
I1
I0
I1
I0
tp591
(dp592
I2
F0.04166831654891238
sI6
F0.08431357260053324
sI8
F0.9999999999999991
ss(I2
I2
I0
I0
I1
I0
I1
I1
I2
tp593
(dp594
I2
F0.9999999999999996
sI3
F-0.8815665891448872
sI5
F-0.8402689067277105
ss(I2
I2
I0
I1
I1
I0
I0
I0
I1
tp595
(dp596
I2
F0.9999999999999996
sI5
F0.07167834401465178
sI6
F-0.8715471392161067
sI7
F-0.8271226979068401
ss(I2
I1
I0
I0
I1
I2
I1
I0
I0
tp597
(dp598
I2
F-0.8163297287154867
sI3
F-0.9999932285438707
sI7
F-0.966632244950878
sI8
F-0.9949448487843536
ss(I2
I1
I0
I0
I1
I2
I1
I2
I0
tp599
(dp600
I2
F0.9999999999999996
sI3
F0.015775941038753308
sI8
F0.04483708162260767
ss(I2
I1
I1
I0
I1
I0
I0
I2
I0
tp601
(dp602
I3
F-0.6056833183904917
sI5
F-0.8326725422283907
sI6
F0.9745534534210907
sI8
F-0.8129213806282719
ss(I2
I2
I0
I1
I1
I2
I1
I0
I0
tp603
(dp604
I2
F0.9999999999999996
sI7
F-0.863014800758391
sI8
F-0.8883743136181222
ss(I2
I1
I0
I0
I0
I0
I0
I1
I0
tp605
(dp606
I2
F-0.9196692432928287
sI3
F-0.4295241712305609
sI4
F0.7677099273140907
sI5
F-0.568806631779758
sI6
F-0.8232376529332113
sI8
F-0.8660315943223528
ss(I2
I1
I2
I0
I0
I0
I0
I1
I0
tp607
(dp608
I3
F-0.009190000000000002
sI4
F0.9622294779767824
sI5
F-0.08117768350148497
sI6
F0.18294456460041356
sI8
F0.03390406411488403
ss(I2
I1
I2
I1
I0
I0
I0
I1
I0
tp609
(dp610
I4
F0.7668739609575119
sI5
F-0.7477302774366371
sI6
F-0.7523171981355157
sI8
F-0.7518171250558012
ss(I2
I0
I2
I0
I1
I0
I1
I0
I0
tp611
(dp612
I1
F0.33998106383356674
sI3
F-0.9274834443307393
sI5
F-0.6823959919618376
sI7
F-0.817030476457897
sI8
F-0.8309794004009555
ss(I2
I1
I0
I0
I2
I0
I0
I1
I1
tp613
(dp614
I2
F-0.8753608552656197
sI3
F-0.9226305704709464
sI5
F-0.6631182024229856
sI6
F0.9972836712027331
ss(I2
I1
I0
I0
I1
I0
I2
I0
I1
tp615
(dp616
I2
F-0.9024311111883054
sI3
F0.9999999999999996
sI5
F-0.7124905349473375
sI7
F-0.05157075137902679
ss(I2
I1
I2
I0
I1
I0
I2
I0
I1
tp617
(dp618
I3
F0.9999999999999991
sI5
F-0.7493113912378906
sI7
F0.9999999999999996
ss(I2
I1
I2
I1
I1
I0
I2
I0
I1
tp619
(dp620
I5
F-0.9999999999999996
sI7
F-0.9999999999999996
ss(I2
I0
I1
I0
I1
I0
I0
I0
I2
tp621
(dp622
I1
F0.7534016620733931
sI3
F0.9120160756875142
sI5
F0.7990964961332446
sI6
F0.9999999999999996
sI7
F0.7823842879077963
ss(I2
I2
I1
I0
I1
I1
I0
I1
I2
tp623
(dp624
I3
F-0.9999999999999996
sI6
F-0.9999999999999996
ss(I2
I2
I1
I2
I1
I1
I0
I1
I2
tp625
(dp626
I6
F0.9999999999999996
ss(I1
I2
I1
I2
I0
I1
I0
I2
I0
tp627
(dp628
I4
F0.9244552181870411
sI6
F-0.337339
sI8
F0.109
ss(I2
I0
I2
I0
I1
I0
I1
I1
I0
tp629
(dp630
I1
F0.9999999999999996
sI3
F-0.9044028022301479
sI5
F-0.8201399041121904
sI8
F-0.8373352279064041
ss(I2
I1
I1
I0
I0
I2
I0
I2
I1
tp631
(dp632
I3
F1.2432134477074765e-12
sI4
F0.06876621721244777
sI6
F0.0058596503804957505
ss(I2
I1
I1
I1
I0
I2
I0
I2
I1
tp633
(dp634
I4
F1.4978527259308317e-10
sI6
F1.6642808065898128e-10
ss(I2
I0
I2
I0
I1
I0
I1
I0
I1
tp635
(dp636
I1
F0.9999999999999996
sI3
F-0.45056244561705594
sI5
F-0.9627823580926298
sI7
F0.1375485518455706
ss(I2
I2
I0
I1
I2
I1
I0
I0
I1
tp637
(dp638
I2
F0.999999999665932
sI6
F-0.9194358924923588
sI7
F-0.8315604648333677
ss(I2
I0
I1
I0
I0
I0
I1
I0
I0
tp639
(dp640
I1
F-0.9704566052413569
sI3
F-0.9767742132225503
sI4
F-0.43751180789874894
sI5
F-0.9742051915173418
sI7
F-0.9859466319054424
sI8
F-0.9129366688092317
ss(I2
I2
I1
I0
I0
I0
I1
I0
I0
tp641
(dp642
I3
F0.021931658567066373
sI4
F0.9999956146041731
sI5
F0.38440281133931575
sI7
F0.27828999999939036
sI8
F0.6548057018269489
ss(I2
I2
I1
I1
I0
I0
I2
I1
I0
tp643
(dp644
I4
F0.0929184979387549
sI5
F0.9999908390950496
sI8
F0.08448796443394725
ss(I2
I1
I0
I1
I1
I2
I0
I0
I0
tp645
(dp646
I2
F-0.6960317362695833
sI6
F-0.8774623343160055
sI7
F-0.11123771374432
sI8
F-0.862155106555179
ss(I2
I0
I0
I0
I1
I2
I0
I1
I1
tp647
(dp648
I1
F-0.6041109188201784
sI2
F-0.9918404354489606
sI3
F-0.9996785841041366
sI6
F-0.9716952625985932
ss(I2
I2
I0
I0
I1
I2
I0
I1
I1
tp649
(dp650
I2
F0.1663003427007469
sI3
F-0.9838172658911893
sI6
F0.9999999999999996
ss(I2
I2
I1
I0
I1
I2
I0
I1
I1
tp651
(dp652
I3
F-0.9999999999728143
sI6
F2.620420300691294e-104
ss(I2
I1
I0
I0
I2
I2
I0
I1
I1
tp653
(dp654
I2
F-0.8165868209771725
sI3
F0.18410962965749278
sI6
F0.9999999999498582
ss(I2
I1
I1
I0
I2
I2
I0
I1
I1
tp655
(dp656
I3
F0.9999999999999996
sI6
F8.174508389133004e-23
ss(I2
I2
I0
I0
I1
I1
I0
I1
I2
tp657
(dp658
I2
F0.9999999999999991
sI3
F0.9999999999999996
sI6
F-0.706875728788962
ss(I2
I2
I0
I0
I1
I1
I1
I1
I2
tp659
(dp660
I2
F0.9999999999999996
sI3
F-0.9999999792478566
ss(I2
I1
I0
I1
I1
I2
I0
I2
I0
tp661
(dp662
I2
F0.14144369023305883
sI6
F0.0438395393054262
sI8
F4e-323
ss(I2
I1
I0
I1
I2
I2
I0
I1
I1
tp663
(dp664
I2
F-0.9999999999999996
sI6
F2e-323
ss(I2
I2
I0
I1
I1
I0
I2
I1
I1
tp665
(dp666
I2
F0.9999999999999996
sI5
F2.5232530183221555e-79
ss(I2
I1
I0
I0
I1
I1
I2
I0
I0
tp667
(dp668
I2
F-0.5321714859466986
sI3
F0.9999999999999996
sI7
F-0.6215297427518696
sI8
F-0.7459851007416759
ss(I2
I1
I0
I0
I1
I1
I2
I0
I2
tp669
(dp670
I2
F-0.9957836965028916
sI3
F0.9999999999999996
sI7
F0.9993107633769605
ss(I1
I0
I1
I0
I2
I0
I0
I0
I0
tp671
(dp672
I1
F0.38294450330375013
sI3
F-0.8815071226884091
sI5
F-0.7468565795565973
sI6
F-0.9201091390256898
sI7
F-0.5304508920076446
sI8
F-0.9529181249845361
ss(I2
I0
I1
I0
I2
I0
I0
I0
I1
tp673
(dp674
I1
F0.2632569876642106
sI3
F0.23673446574614995
sI5
F0.9999999999999996
sI6
F0.7266659372718743
sI7
F0.9811112856502406
ss(I2
I0
I1
I0
I2
I0
I1
I0
I1
tp675
(dp676
I1
F-0.8798470122273073
sI3
F-0.8767717431235398
sI5
F-0.9422767361236014
sI7
F-0.8273150971499714
ss(I2
I2
I1
I0
I2
I0
I1
I0
I1
tp677
(dp678
I3
F-0.8794188426605433
sI5
F0.9999999999999996
sI7
F0.9958671876612499
ss(I2
I1
I0
I0
I2
I0
I0
I0
I1
tp679
(dp680
I2
F-0.09052151145617991
sI3
F-0.0860909140709262
sI5
F-0.0821470620921479
sI6
F0.1947416107805926
sI7
F-0.8666792033836471
ss(I2
I1
I1
I0
I2
I0
I0
I0
I1
tp681
(dp682
I3
F-0.9790013038802459
sI5
F0.03384464390073481
sI6
F-0.7826100865491373
sI7
F-0.9894232225461034
ss(I2
I2
I0
I1
I2
I0
I1
I0
I1
tp683
(dp684
I2
F-0.9223470228579164
sI5
F-0.9999999999997364
sI7
F0.9999999999999996
ss(I2
I2
I1
I0
I1
I0
I2
I1
I0
tp685
(dp686
I3
F0.18304225622297987
sI5
F-0.8676307035114577
sI8
F-0.7255047087765184
ss(I2
I0
I0
I0
I1
I0
I0
I0
I1
tp687
(dp688
I1
F-0.6316059466947147
sI2
F-0.0795683950288201
sI3
F-0.5822894948076838
sI5
F-0.8156391334110664
sI6
F-0.4074729549435349
sI7
F-0.7806631635961269
ss(I2
I2
I0
I0
I1
I0
I0
I0
I1
tp689
(dp690
I2
F0.8073026702504931
sI3
F-0.7810872084589141
sI5
F-0.5778371255640581
sI6
F-0.4957661078463073
sI7
F-0.6004519907395054
ss(I2
I2
I1
I0
I1
I0
I0
I0
I1
tp691
(dp692
I3
F-0.9997584535452827
sI5
F-0.9980849066219846
sI6
F-0.7763719229371816
sI7
F-0.9999999895696452
ss(I2
I2
I1
I2
I1
I0
I0
I0
I1
tp693
(dp694
I5
F0.9999999999999996
sI6
F0.999999927977753
sI7
F-0.8028539967558125
ss(I2
I2
I1
I0
I1
I0
I2
I0
I1
tp695
(dp696
I3
F0.11188934705526751
sI5
F0.9999999999999996
sI7
F-0.8638513669366155
ss(I2
I2
I1
I1
I1
I0
I2
I0
I1
tp697
(dp698
I5
F8.014814733741429e-141
sI7
F-0.9999999999999946
ss(I2
I2
I1
I1
I1
I0
I2
I2
I1
tp699
(dp700
I5
F0.9999999999999996
ss(I2
I2
I1
I0
I1
I1
I2
I1
I0
tp701
(dp702
I3
F0.9999999999999996
sI8
F-0.9999999999999996
ss(I2
I2
I1
I0
I1
I0
I0
I1
I2
tp703
(dp704
I3
F0.9999999999999991
sI5
F0.9999999999999991
sI6
F0.9999999999999996
ss(I2
I2
I0
I0
I1
I0
I2
I1
I1
tp705
(dp706
I2
F-0.9972667521973038
sI3
F-0.9719350784515861
sI5
F-0.9999999999999996
ss(I2
I2
I1
I0
I1
I0
I2
I1
I1
tp707
(dp708
I3
F0.9999999999999996
sI5
F1.5269146640099783e-98
ss(I2
I2
I0
I1
I1
I2
I0
I0
I1
tp709
(dp710
I2
F0.11767851167510486
sI6
F-0.5245353006840747
sI7
F-0.9613812162383903
ss(I2
I1
I1
I1
I2
I0
I0
I2
I1
tp711
(dp712
I5
F2e-323
sI6
F-0.9999999999999996
ss(I2
I0
I2
I0
I1
I0
I0
I1
I0
tp713
(dp714
I1
F0.9999999999999996
sI3
F-0.9728309131943813
sI5
F-0.6026564210427311
sI6
F-0.7877445197425484
sI8
F-0.6555361260791212
ss(I2
I0
I1
I0
I1
I0
I0
I2
I0
tp715
(dp716
I1
F-0.7687623488207621
sI3
F0.665324665853261
sI5
F0.9304509380978381
sI6
F0.9999999999999996
sI8
F0.8136688650584536
ss(I2
I2
I0
I0
I1
I1
I2
I1
I1
tp717
(dp718
I2
F0.9999999999999996
sI3
F0.9999999998561946
ss(I2
I0
I0
I0
I1
I2
I0
I1
I0
tp719
(dp720
I1
F0.9999999999999996
sI2
F0.75618996258275
sI3
F-0.013817433474688001
sI6
F0.9992841618264838
sI8
F0.7482305986087888
ss(I1
I2
I0
I0
I1
I2
I0
I1
I0
tp721
(dp722
I2
F-0.6865415647728412
sI3
F-0.9995141338504289
sI6
F-0.8374515040039321
sI8
F0.08041073040401943
ss(I2
I2
I0
I1
I1
I2
I1
I0
I1
tp723
(dp724
I2
F0.9999999999999996
sI7
F-0.9999999889714601
ss(I2
I1
I0
I0
I0
I0
I1
I0
I2
tp725
(dp726
I2
F-0.33084361
sI3
F-0.22666470398015265
sI4
F0.731543910422784
sI5
F-0.26333961620465723
sI7
F-0.516920131
ss(I2
I1
I1
I1
I0
I0
I0
I0
I2
tp727
(dp728
I4
F0.999999999998745
sI5
F-0.7484809126599989
sI6
F0.7526491870671752
sI7
F0.5035614540893489
ss(I2
I1
I1
I0
I2
I0
I0
I2
I1
tp729
(dp730
I3
F0.019349544652383806
sI5
F0.9999999999999996
sI6
F0.1780550918744898
ss(I2
I2
I0
I0
I1
I1
I1
I0
I2
tp731
(dp732
I2
F0.9999999999999996
sI3
F0.9999245844254345
sI7
F-0.6834391071050374
ss(I1
I0
I0
I0
I1
I2
I0
I2
I0
tp733
(dp734
I1
F0.7735790850738617
sI2
F0.9548567997073418
sI3
F0.6684942449619987
sI6
F0.8760294642601524
sI8
F0.9999999999999996
ss(I1
I1
I0
I0
I1
I2
I0
I2
I0
tp735
(dp736
I2
F-0.4588918241291613
sI3
F-0.9999999999999996
sI6
F-0.9807862159200936
sI8
F-0.8832139482362807
ss(I0
I2
I0
I1
I1
I0
I0
I2
I0
tp737
(dp738
I0
F0.9539616050159789
sI2
F0.8735684591869497
sI5
F0.9999999999999996
sI6
F0.8285085841614795
sI8
F0.987864319047938
ss(I1
I2
I0
I1
I1
I0
I0
I2
I0
tp739
(dp740
I2
F-0.9957836965028916
sI5
F-0.9974798364436119
sI6
F-0.9791613872948703
sI8
F-0.9969229220642953
ss(I2
I1
I1
I0
I2
I0
I2
I0
I1
tp741
(dp742
I3
F0.1152199767867926
sI5
F0.9999999999999996
sI7
F-0.8603885093283603
ss(I1
I2
I0
I1
I1
I2
I0
I2
I0
tp743
(dp744
I2
F0.9999999999999991
sI6
F0.9999844726019751
sI8
F0.9999639289644737
ss(I2
I1
I1
I0
I2
I2
I0
I1
I0
tp745
(dp746
I3
F-0.9381265156779179
sI6
F-0.9953152183365461
sI8
F-0.9380024542913745
ss(I2
I2
I0
I1
I1
I0
I0
I1
I0
tp747
(dp748
I2
F0.9999999999999996
sI5
F0.09046831558306065
sI6
F-0.9237816394155811
sI8
F-0.9393501912374204
ss(I2
I2
I0
I1
I1
I0
I1
I1
I2
tp749
(dp750
I2
F0.9999999999999996
sI5
F-0.9999632002566852
ss(I2
I2
I0
I1
I1
I2
I1
I1
I2
tp751
(dp752
I2
F0.9999999999999996
ss(I2
I2
I0
I0
I1
I2
I1
I1
I0
tp753
(dp754
I2
F0.9999999999999996
sI3
F-0.9333923780926696
sI8
F0.9999808303728088
ss(I2
I1
I0
I0
I1
I1
I0
I0
I2
tp755
(dp756
I2
F-0.9999591113782045
sI3
F-0.9908475604623377
sI6
F-0.8427704190335958
sI7
F-0.9991127837970746
ss(I1
I2
I0
I0
I2
I1
I0
I0
I1
tp757
(dp758
I2
F0.7994974626939525
sI3
F-0.8875400501344131
sI6
F-0.9486372772559726
sI7
F0.9999999999999996
ss(I1
I2
I0
I2
I2
I1
I0
I0
I1
tp759
(dp760
I2
F0.9999999999999996
sI6
F-0.6928046366696227
sI7
F0.9997836975626352
ss(I1
I2
I0
I0
I1
I2
I1
I0
I0
tp761
(dp762
I2
F-0.8268039137199764
sI3
F-0.9992187089623575
sI7
F-0.99943043991787
sI8
F-0.9994153145295334
ss(I2
I2
I0
I0
I1
I1
I0
I2
I1
tp763
(dp764
I2
F0.9999999999999996
sI3
F0.9999999999999651
sI6
F-0.5734847492049935
ss(I1
I2
I0
I0
I1
I1
I0
I2
I0
tp765
(dp766
I2
F-0.9989307071141778
sI3
F-0.9991734724998436
sI6
F-0.9992042032961903
sI8
F-0.9963296172007341
ss(I2
I0
I0
I0
I2
I1
I0
I0
I1
tp767
(dp768
I1
F0.12953622873589876
sI2
F0.9999999999999996
sI3
F-0.8495131509309188
sI6
F0.9006800645175259
sI7
F0.5107651996721256
ss(I2
I1
I0
I0
I2
I1
I0
I0
I1
tp769
(dp770
I2
F-0.08367945503797991
sI3
F-0.68470854402082
sI6
F-0.8360217827124361
sI7
F-0.7969752828527958
ss(I1
I1
I0
I0
I2
I1
I0
I2
I0
tp771
(dp772
I2
F0.050267768917837304
sI3
F-0.9213402502695658
sI6
F-0.5561414623076549
sI8
F-0.7433817261916649
ss(I2
I2
I0
I0
I2
I1
I1
I1
I0
tp773
(dp774
I2
F-0.9137917134525186
sI3
F-0.9999896066655528
sI8
F0.9999999999999996
ss(I2
I1
I0
I1
I1
I0
I0
I0
I2
tp775
(dp776
I2
F-0.9729408331071054
sI5
F-0.9023322763594401
sI6
F-0.9736707008042089
sI7
F-0.9736960017498004
ss(I2
I2
I1
I1
I0
I0
I1
I0
I2
tp777
(dp778
I4
F0.9993107633769605
sI5
F-0.1819
sI7
F-0.4036051
ss(I2
I2
I1
I1
I1
I0
I0
I2
I1
tp779
(dp780
I5
F-0.999999940483434
sI6
F-0.999999940483434
ss(I1
I2
I0
I0
I1
I2
I1
I2
I0
tp781
(dp782
I2
F0.9999925732936596
sI3
F0.350461
sI8
F0.5264860690000001
ss(I1
I2
I0
I1
I2
I2
I0
I1
I0
tp783
(dp784
I2
F0.10296541740701681
sI6
F0.9999999999999996
sI8
F0.11377956001765893
ss(I1
I1
I0
I0
I2
I2
I0
I0
I0
tp785
(dp786
I2
F0.9999999999999996
sI3
F0.8513047189028212
sI6
F-0.5950459315477993
sI7
F-0.9606512688502202
sI8
F-0.8429966879393694
ss(I2
I2
I1
I1
I0
I2
I0
I1
I0
tp787
(dp788
I4
F0.00810003643538942
sI6
F0.9997900935177905
sI8
F0.0038848212463226967
ss(I2
I1
I1
I1
I2
I0
I0
I2
I0
tp789
(dp790
I5
F-0.7015087212071117
sI6
F-0.8301486644604622
sI8
F0.089080037392783
ss(I2
I2
I0
I0
I1
I1
I0
I1
I0
tp791
(dp792
I2
F0.9999999999999996
sI3
F0.8363821127299021
sI6
F-0.4835321679294321
sI8
F-0.9497456144771916
ss(I2
I2
I0
I0
I1
I0
I1
I1
I0
tp793
(dp794
I2
F0.9999999999999996
sI3
F-0.9961463789897502
sI5
F-0.9855587479724558
sI8
F-0.8941146792227732
ss(I1
I2
I0
I1
I2
I0
I0
I0
I1
tp795
(dp796
I2
F-0.6252059037332841
sI5
F-0.958441512416105
sI6
F0.8949700060584161
sI7
F0.9999999999999996
ss(I2
I2
I1
I0
I2
I1
I1
I0
I0
tp797
(dp798
I3
F-0.8894868209771726
sI7
F-0.6087053061100001
sI8
F0.9999999574715833
ss(I2
I2
I0
I0
I1
I0
I0
I1
I1
tp799
(dp800
I2
F0.9999999999999996
sI3
F-0.7724858903853
sI5
F-0.9540171794085691
sI6
F0.8997755590967611
ss(I2
I1
I1
I0
I2
I2
I0
I0
I1
tp801
(dp802
I3
F4e-323
sI6
F-0.8961837246449247
sI7
F-0.9530985141577754
ss(I2
I0
I0
I0
I0
I0
I0
I0
I1
tp803
(dp804
I1
F0.06635764087203015
sI2
F0.3207016538913562
sI3
F-0.10650420044705158
sI4
F0.18672324824623887
sI5
F-0.5406151165181129
sI6
F0.8148156976920504
sI7
F-0.2485693038946098
ss(I1
I2
I0
I2
I2
I1
I0
I1
I1
tp805
(dp806
I2
F-0.9999999999999996
sI6
F-0.9999999999999996
ss(I2
I1
I0
I0
I2
I1
I1
I0
I0
tp807
(dp808
I2
F0.019798087760079283
sI3
F-0.9083398514329133
sI7
F-0.12684685721420155
sI8
F0.9999999999999996
ss(I2
I2
I1
I1
I0
I0
I2
I0
I1
tp809
(dp810
I4
F0.06130399771611938
sI5
F0.9724652894450743
sI7
F0.009531441
ss(I2
I2
I1
I1
I0
I0
I0
I0
I0
tp811
(dp812
I4
F0.9528279105699617
sI5
F0.5414781712027139
sI6
F-0.0342976067302149
sI7
F0.4621538267217188
sI8
F0.1026035289296656
ss(I1
I2
I0
I0
I2
I0
I1
I0
I1
tp813
(dp814
I2
F-0.9851946996632813
sI3
F-0.8042296673338878
sI5
F-0.9284021383403344
sI7
F0.9999999999999996
ss(I2
I1
I1
I0
I2
I0
I1
I2
I0
tp815
(dp816
I3
F-0.9534622239191473
sI5
F-0.4175417865803664
sI8
F0.10481226438342148
ss(I2
I1
I0
I0
I0
I0
I1
I2
I0
tp817
(dp818
I2
F0.08143042199561398
sI3
F-0.07747465386900079
sI4
F0.08587051894129444
sI5
F0.1743962351082224
sI8
F0.07818021832006267
ss(I2
I1
I1
I0
I0
I0
I1
I2
I0
tp819
(dp820
I3
F-0.981316185289307
sI4
F-0.02803457556746769
sI5
F-0.7287388140735411
sI8
F-0.6825501557170599
ss(I2
I1
I0
I0
I2
I2
I1
I0
I1
tp821
(dp822
I2
F-0.8037610108077204
sI3
F0.028499021441935685
sI7
F0.9999999999999996
ss(I1
I2
I0
I1
I1
I2
I0
I0
I0
tp823
(dp824
I2
F-0.9983805823435212
sI6
F-0.960334321564394
sI7
F-0.9999999999999996
sI8
F-0.7634735944953555
ss(I2
I0
I1
I0
I1
I1
I0
I2
I0
tp825
(dp826
I1
F-0.9953152183365461
sI3
F-0.9665933971261537
sI6
F-0.9814689825617678
sI8
F-0.976946968555643
ss(I2
I1
I2
I1
I0
I0
I2
I0
I1
tp827
(dp828
I4
F0.9995928235842397
sI5
F-0.4036051
sI7
F-0.4036051
ss(I2
I1
I2
I1
I0
I1
I2
I0
I1
tp829
(dp830
I4
F0.9999999999235759
sI7
F-0.9412687656269296
ss(I2
I0
I1
I0
I2
I0
I0
I1
I0
tp831
(dp832
I1
F-0.999249616856999
sI3
F-0.7645256422110448
sI5
F-0.7858254524898751
sI6
F-0.6856581872723935
sI8
F0.8723872853846564
ss(I2
I2
I1
I1
I0
I0
I0
I2
I1
tp833
(dp834
I4
F0.9869535590843744
sI5
F0.1981
sI6
F-0.337339
ss(I2
I2
I1
I1
I0
I1
I2
I1
I0
tp835
(dp836
I4
F-0.9998697029221048
sI8
F-0.9998827326298942
ss(I2
I2
I1
I1
I0
I1
I2
I1
I2
tp837
(dp838
I4
F0.9999999866541321
ss(I2
I2
I0
I2
I1
I1
I0
I0
I1
tp839
(dp840
I2
F0.9999999999999996
sI6
F-0.692500127506999
sI7
F-0.9999999999978314
ss(I1
I0
I1
I0
I2
I0
I0
I2
I0
tp841
(dp842
I1
F0.9999999999999996
sI3
F-0.8620833807971072
sI5
F-0.8028162638701737
sI6
F-0.7827622893258201
sI8
F-0.7036135579945395
ss(I2
I2
I0
I0
I1
I1
I2
I0
I1
tp843
(dp844
I2
F0.9999999999999996
sI3
F0.9922233844608338
sI7
F-0.9942163189340075
ss(I2
I0
I1
I0
I2
I0
I1
I0
I0
tp845
(dp846
I1
F-0.9221784916139357
sI3
F-0.9452383819207756
sI5
F-0.7553704649002105
sI7
F-0.4379187856690465
sI8
F0.8421516402283771
ss(I1
I2
I0
I0
I2
I2
I1
I0
I1
tp847
(dp848
I2
F-0.1819
sI3
F0.997288461824546
sI7
F0.6548083443010001
ss(I1
I2
I0
I2
I0
I0
I0
I0
I1
tp849
(dp850
I2
F0.9289283622853881
sI4
F0.01
sI5
F0.01
sI6
F0.10899763337935912
sI7
F0.01
ss(I1
I2
I1
I2
I0
I0
I0
I0
I1
tp851
(dp852
I4
F-0.9825146353608031
sI5
F-0.766583256475384
sI6
F-0.996811725298225
sI7
F-0.9945048439156337
ss(I2
I2
I0
I0
I1
I0
I1
I0
I1
tp853
(dp854
I2
F0.9999999999999996
sI3
F-0.972336586521532
sI5
F-0.9872818603183036
sI7
F-0.7298800970613506
ss(I2
I0
I0
I0
I2
I1
I0
I1
I0
tp855
(dp856
I1
F-0.9196474045361838
sI2
F-0.37584065803922834
sI3
F-0.9587211007335306
sI6
F-0.7769410007950436
sI8
F0.8567020978078563
ss(I2
I1
I0
I0
I2
I1
I2
I1
I0
tp857
(dp858
I2
F-0.743271551338771
sI3
F-0.71474616815419
sI8
F-0.6830512979491
ss(I2
I2
I0
I0
I1
I1
I0
I0
I1
tp859
(dp860
I2
F0.9999999999999996
sI3
F-0.8631164669101298
sI6
F-0.9458652543877847
sI7
F-0.9158781867549102
ss(I2
I2
I1
I1
I0
I2
I1
I0
I1
tp861
(dp862
I4
F-0.9999999999999996
sI7
F-0.9999999999999996
ss(I1
I2
I0
I0
I2
I0
I0
I1
I1
tp863
(dp864
I2
F-0.9270273394531763
sI3
F-0.9778791795079073
sI5
F-0.4852064738959028
sI6
F-0.011108678538748057
ss(I2
I2
I1
I0
I2
I0
I1
I1
I0
tp865
(dp866
I3
F-0.713940320748407
sI5
F-0.7289863320815939
sI8
F0.9999999999999996
ss(I1
I2
I0
I1
I2
I2
I0
I0
I1
tp867
(dp868
I2
F-0.9475501272851198
sI6
F0.9999999999999996
sI7
F0.0540954471445864
ss(I2
I1
I1
I0
I0
I0
I1
I0
I2
tp869
(dp870
I3
F-0.6273276182822641
sI4
F0.9999999999989834
sI5
F-0.5554029589608436
sI7
F-0.5837241097039626
ss(I2
I1
I0
I0
I2
I1
I2
I0
I1
tp871
(dp872
I2
F0.9999999999999344
sI3
F-0.71474616815419
sI7
F-0.8772075788635251
ss(I2
I2
I0
I1
I2
I0
I0
I1
I1
tp873
(dp874
I2
F0.9999995201085955
sI5
F-0.8180854868807552
sI6
F0.9999999999999996
ss(I2
I1
I0
I0
I1
I0
I1
I0
I2
tp875
(dp876
I2
F-0.9875064861356617
sI3
F-0.9999998103421276
sI5
F-0.9926043407984819
sI7
F-0.9999999065585862
ss(I2
I0
I1
I0
I2
I1
I0
I0
I0
tp877
(dp878
I1
F-0.7936870536709486
sI3
F-0.7598216240361805
sI6
F-0.7717616117351243
sI7
F-0.6416407953124228
sI8
F0.9999999999999996
ss(I2
I1
I2
I0
I0
I0
I1
I0
I1
tp879
(dp880
I3
F-0.26371
sI4
F-0.09100000000000001
sI5
F-0.337339
sI7
F3.0651264736890303e-06
ss(I1
I1
I0
I0
I2
I2
I1
I0
I0
tp881
(dp882
I2
F-0.361354994377014
sI3
F0.9999999999999996
sI7
F-0.8616978324003
sI8
F-0.9994414542750646
ss(I2
I1
I1
I0
I2
I2
I1
I0
I0
tp883
(dp884
I3
F-0.8172446673670709
sI7
F-0.9953152183365461
sI8
F-0.7965979612934426
ss(I1
I2
I0
I1
I0
I0
I0
I2
I0
tp885
(dp886
I2
F-0.4613474506796086
sI4
F0.3369843959760779
sI5
F-0.55502976511
sI6
F0.9999999953465836
sI8
F-0.4036051
ss(I1
I2
I0
I0
I2
I0
I1
I0
I0
tp887
(dp888
I2
F-0.7720736488135618
sI3
F0.9999999999999996
sI5
F-0.44966032455883975
sI7
F0.930734592095312
sI8
F-0.5885765836488082
ss(I1
I1
I0
I0
I2
I0
I0
I2
I0
tp889
(dp890
I2
F0.9999999999999996
sI3
F0.8308324953271558
sI5
F0.009356248457558655
sI6
F0.9042498722469845
sI8
F0.004234493025048977
ss(I2
I1
I0
I0
I2
I1
I0
I2
I1
tp891
(dp892
I2
F0.9999999999999271
sI3
F0.16030166340696417
sI6
F0.04268673271748265
ss(I2
I0
I1
I0
I0
I1
I0
I0
I0
tp893
(dp894
I1
F-0.9959545110204749
sI3
F-0.8637421319793434
sI4
F-0.9256911499471904
sI6
F-0.7907145854214666
sI7
F-0.9607037831080064
sI8
F-0.666560510262714
ss(I2
I0
I1
I0
I0
I1
I0
I2
I0
tp895
(dp896
I1
F-0.4350613122243295
sI3
F0.6307458474749672
sI4
F0.6573342745886346
sI6
F0.7492911551057757
sI8
F0.9999999999999996
ss(I2
I1
I1
I0
I0
I1
I0
I2
I0
tp897
(dp898
I3
F-0.45669683436044656
sI4
F-0.49253889869281003
sI6
F-0.3259840725669709
sI8
F0.855093290339092
ss(I2
I2
I0
I1
I0
I2
I1
I1
I0
tp899
(dp900
I2
F0.9807653470246674
sI4
F-0.09100000000000001
sI8
F0.1981
ss(I2
I2
I1
I1
I0
I2
I1
I1
I0
tp901
(dp902
I4
F-0.9999857430254497
sI8
F-0.9999871687229047
ss(I2
I2
I1
I1
I0
I2
I1
I1
I2
tp903
(dp904
I4
F0.9999986238163214
ss(I2
I1
I1
I0
I0
I0
I0
I0
I2
tp905
(dp906
I3
F-0.8725445560714419
sI4
F0.9571890672677895
sI5
F-0.91304952334388
sI6
F-0.7747113096450676
sI7
F-0.42788908541702625
ss(I2
I2
I0
I1
I2
I1
I0
I1
I1
tp907
(dp908
I2
F0.9999999999999996
sI6
F-0.99852986587364
ss(I2
I0
I1
I0
I2
I1
I1
I0
I0
tp909
(dp910
I1
F-0.8031897785714206
sI3
F-0.8802972592052206
sI7
F-0.6556765644434057
sI8
F0.9999999999999996
ss(I2
I0
I1
I0
I2
I2
I1
I1
I0
tp911
(dp912
I1
F-0.71474616815419
sI3
F-0.6189064787844046
sI8
F0.9999999958119252
ss(I2
I2
I0
I0
I0
I0
I1
I1
I0
tp913
(dp914
I2
F0.9057215193537598
sI3
F-0.7840553153798877
sI4
F-0.6649625969166503
sI5
F-0.47663173981791895
sI8
F0.9999999999999996
ss(I2
I2
I1
I0
I0
I0
I1
I1
I0
tp915
(dp916
I3
F-0.9426163246708412
sI4
F-0.942685366135666
sI5
F-0.9441705000780961
sI8
F-0.9453132975557963
ss(I2
I0
I0
I0
I0
I2
I0
I1
I1
tp917
(dp918
I1
F0.5314653109873162
sI2
F0.055607104408179044
sI3
F0.19695245602668418
sI4
F0.8173369198832061
sI6
F0.99999512733797
ss(I2
I1
I0
I0
I0
I2
I0
I1
I1
tp919
(dp920
I2
F-0.6477637747087217
sI3
F-0.5200765166291358
sI4
F-0.54309530611
sI6
F-0.5276757905152234
ss(I2
I2
I1
I0
I0
I2
I1
I1
I0
tp921
(dp922
I3
F0.9987377107985179
sI4
F0.47387341000000005
sI8
F0.41541490000000003
ss(I2
I1
I2
I0
I0
I0
I1
I2
I1
tp923
(dp924
I3
F1.3702476552983185e-11
sI4
F1.475041780662603e-11
sI5
F1.3345600186417632e-11
ss(I2
I1
I2
I1
I0
I0
I1
I2
I1
tp925
(dp926
I4
F1.0567469474557042e-19
sI5
F1.0567469474557042e-19
ss(I2
I2
I1
I0
I0
I1
I0
I1
I0
tp927
(dp928
I3
F-0.7841154229010001
sI4
F-0.8120042759169751
sI6
F-0.7920499565844045
sI8
F-0.6056638896051969
ss(I2
I2
I1
I0
I0
I0
I1
I1
I2
tp929
(dp930
I3
F-0.2699571003571157
sI4
F0.9999933159642936
sI5
F-0.4998303365945799
ss(I2
I2
I1
I1
I0
I0
I1
I1
I2
tp931
(dp932
I4
F0.9999999720971058
sI5
F-0.8894868209771726
ss(I2
I0
I2
I0
I0
I0
I1
I1
I0
tp933
(dp934
I1
F0.703804193011042
sI3
F-0.8932112032112427
sI4
F-0.687247932814694
sI5
F-0.41165807404619176
sI8
F0.9999999999999996
ss(I2
I1
I2
I0
I0
I0
I1
I1
I0
tp935
(dp936
I3
F-0.9745732305548599
sI4
F-0.7490008381331565
sI5
F-0.9772463164596115
sI8
F-0.9732756167764209
ss(I2
I2
I0
I1
I0
I1
I2
I0
I1
tp937
(dp938
I2
F0.994897762544753
sI4
F0.109
sI7
F0.01
ss(I2
I1
I2
I0
I0
I0
I2
I1
I1
tp939
(dp940
I3
F-0.5230112465693344
sI4
F0.9999450220461418
sI5
F-0.26371
ss(I2
I2
I0
I0
I0
I1
I1
I0
I0
tp941
(dp942
I2
F0.7573585696701473
sI3
F-0.4036051
sI4
F-0.06371000000000655
sI7
F-0.219499524111619
sI8
F0.018082480529802616
ss(I2
I2
I0
I0
I0
I1
I1
I0
I1
tp943
(dp944
I2
F0.9993796870392644
sI3
F-0.09100000000000001
sI4
F-0.15733900000000006
sI7
F-0.337339
ss(I2
I2
I0
I1
I0
I2
I1
I0
I1
tp945
(dp946
I2
F0.9999999395880723
sI4
F-0.5241633959182797
sI7
F0.6893275098709001
ss(I2
I0
I1
I0
I0
I0
I0
I0
I1
tp947
(dp948
I1
F-0.9781181141053965
sI3
F-0.5478298187944511
sI4
F-0.9635173805127666
sI5
F-0.8409484430421621
sI6
F-0.9368991479526516
sI7
F-0.9621518693363496
ss(I2
I2
I0
I1
I0
I0
I0
I0
I1
tp949
(dp950
I2
F0.7973428236114405
sI4
F-0.1819
sI5
F-0.26371
sI6
F-0.1915398251895934
sI7
F-0.26371
ss(I2
I2
I1
I1
I0
I0
I0
I1
I2
tp951
(dp952
I4
F0.999999260637062
sI5
F-0.6830512979491
sI6
F-0.5652281179
ss(I2
I2
I1
I2
I0
I0
I0
I1
I1
tp953
(dp954
I4
F0.01
sI5
F0.1981
sI6
F0.8662656799503738
ss(I1
I2
I0
I2
I0
I1
I0
I0
I0
tp955
(dp956
I2
F0.1419962780860027
sI4
F0.2772630014480603
sI6
F0.05663536798050668
sI7
F0.10456913915093814
sI8
F0.8514737217807231
ss(I1
I1
I0
I0
I0
I0
I0
I2
I0
tp957
(dp958
I2
F-0.047350230433890104
sI3
F-0.8110132192198473
sI4
F-0.9967226844040024
sI5
F-0.949044703615425
sI6
F-0.7396320428116888
sI8
F-0.9332370102158495
ss(I1
I1
I0
I0
I0
I2
I0
I2
I0
tp959
(dp960
I2
F0.9999844726019751
sI3
F0.2878269644858515
sI4
F0.01
sI6
F0.39238646396580357
sI8
F0.13314609999999272
ss(I0
I2
I0
I2
I0
I1
I0
I1
I0
tp961
(dp962
I0
F0.057282351177145224
sI2
F0.0773216639027308
sI4
F-0.024733900000000003
sI6
F0.026547009470244364
sI8
F0.8509339215607921
ss(I1
I2
I0
I2
I0
I1
I0
I1
I0
tp963
(dp964
I2
F-0.09976352896359711
sI4
F-0.13778018056044528
sI6
F-0.051870530611000006
sI8
F0.0014961174699374752
ss(I2
I1
I0
I1
I0
I2
I0
I0
I1
tp965
(dp966
I2
F-0.10138753566189862
sI4
F-0.041848850048913325
sI6
F-0.05546477137163761
sI7
F1.2546551571699204e-08
ss(I2
I1
I0
I0
I0
I0
I2
I0
I1
tp967
(dp968
I2
F-0.6024992708365529
sI3
F0.16855657418342518
sI4
F-0.9480579354927159
sI5
F-0.9555280415741937
sI7
F-0.7252546331310152
ss(I2
I1
I1
I0
I0
I0
I2
I1
I0
tp969
(dp970
I3
F0.9999999748873952
sI4
F0.7193603987801325
sI5
F-0.7689443962048939
sI8
F-0.36941999480574633
ss(I2
I1
I1
I0
I0
I0
I2
I0
I1
tp971
(dp972
I3
F0.9999999998705751
sI4
F-0.5117304799468575
sI5
F0.04357688677505134
sI7
F-0.7754980556645897
ss(I2
I1
I2
I1
I0
I0
I0
I2
I1
tp973
(dp974
I4
F0.07383526513975694
sI5
F0.01847076468265663
sI6
F0.0005962782529948436
ss(I1
I2
I1
I2
I0
I2
I0
I1
I0
tp975
(dp976
I4
F0.850776362011196
sI6
F-0.1819
sI8
F0.01
ss(I2
I1
I0
I0
I0
I2
I1
I0
I0
tp977
(dp978
I2
F-0.15986664967427966
sI3
F-0.08090160914908988
sI4
F0.7197841144135161
sI7
F0.3382028144042789
sI8
F0.06489050676625494
ss(I2
I1
I2
I1
I0
I0
I1
I0
I2
tp979
(dp980
I4
F-0.577306098454429
sI5
F-0.994253188823605
sI7
F-0.9981850195970865
ss(I1
I2
I0
I1
I0
I2
I0
I0
I1
tp981
(dp982
I2
F-0.942013437138026
sI4
F-0.9574539877165632
sI6
F-0.7897152124703806
sI7
F-0.9490622211980551
ss(I2
I2
I0
I0
I0
I0
I0
I1
I1
tp983
(dp984
I2
F0.2958158226609529
sI3
F-0.26371
sI4
F-0.09580510000000009
sI5
F0.01
sI6
F0.9999639289644737
ss(I2
I2
I1
I2
I0
I1
I0
I1
I0
tp985
(dp986
I4
F-0.06371000000000004
sI6
F0.9157440192720616
sI8
F0.1981
ss(I2
I2
I1
I2
I0
I1
I1
I1
I0
tp987
(dp988
I4
F-0.9194358924923588
sI8
F-0.9194358924923588
ss(I2
I0
I0
I0
I0
I1
I0
I0
I1
tp989
(dp990
I1
F-0.7264579823986888
sI2
F0.6671607350520636
sI3
F-0.6453216918248487
sI4
F-0.7768529572527554
sI6
F-0.6250290808090442
sI7
F-0.6680939337054286
ss(I2
I2
I0
I0
I0
I1
I0
I0
I1
tp991
(dp992
I2
F0.9819344764049133
sI3
F-0.1819
sI4
F0.01
sI6
F-0.09100000000000001
sI7
F-0.09100000000000001
ss(I2
I1
I1
I0
I0
I2
I1
I2
I0
tp993
(dp994
I3
F0.03909796450954291
sI4
F0.9999245844254345
sI8
F0.05568596582832898
ss(I2
I1
I1
I1
I0
I2
I1
I2
I0
tp995
(dp996
I4
F2.7389274499534083e-05
sI8
F-0.516920131
ss(I1
I2
I0
I2
I0
I2
I0
I1
I1
tp997
(dp998
I2
F-0.7689443962048939
sI4
F0.9999945859310778
sI6
F0.6893275098709001
ss(I1
I2
I1
I2
I0
I2
I1
I1
I0
tp999
(dp1000
I4
F0.9660065301791041
sI8
F-0.1819
ss(I2
I2
I1
I2
I0
I1
I1
I1
I2
tp1001
(dp1002
I4
F0.9799271960054592
ss(I2
I1
I0
I0
I0
I1
I0
I2
I1
tp1003
(dp1004
I2
F-0.15857193355679347
sI3
F-0.7535915899055349
sI4
F-0.9206846518662474
sI6
F-0.9877038235962688
ss(I2
I1
I2
I1
I0
I1
I1
I2
I0
tp1005
(dp1006
I4
F1.3220708194808042e-25
sI8
F-0.9977592834531932
ss(I2
I2
I0
I0
I0
I0
I1
I0
I1
tp1007
(dp1008
I2
F0.9981911960427355
sI3
F-0.8864711039483407
sI4
F-0.7152029055313557
sI5
F-0.8976180408582604
sI7
F0.9999999999999996
ss(I2
I2
I1
I0
I0
I0
I1
I0
I1
tp1009
(dp1010
I3
F-0.986564177406236
sI4
F-0.9861996669367624
sI5
F-0.9857947867295099
sI7
F-0.9860010542546928
ss(I2
I2
I1
I2
I0
I0
I1
I0
I1
tp1011
(dp1012
I4
F0.9868302332991817
sI5
F0.350461
sI7
F0.350461
ss(I2
I2
I1
I0
I0
I2
I1
I0
I1
tp1013
(dp1014
I3
F0.9999999999999991
sI4
F0.9837410287644219
sI7
F0.9481885843302913
ss(I2
I2
I1
I1
I0
I2
I1
I2
I1
tp1015
(dp1016
I4
F0.9999999999999996
ss(I2
I2
I1
I0
I0
I1
I0
I1
I2
tp1017
(dp1018
I3
F-0.3549201337902894
sI4
F0.997803516459514
sI6
F-0.20970887313394176
ss(I2
I2
I1
I1
I0
I1
I0
I1
I2
tp1019
(dp1020
I4
F0.9122569126154403
sI6
F-0.09100000000000001
ss(I2
I1
I1
I0
I0
I0
I2
I0
I0
tp1021
(dp1022
I3
F-0.5759151420046826
sI4
F-0.9296467030623544
sI5
F-0.9221376738528333
sI7
F-0.9477853256797538
sI8
F-0.9494859453873186
ss(I2
I2
I1
I0
I2
I0
I0
I1
I1
tp1023
(dp1024
I3
F0.9999999999999991
sI5
F0.9424317603669903
sI6
F0.9289280992185066
ss(I2
I1
I1
I0
I0
I0
I0
I2
I0
tp1025
(dp1026
I3
F-0.6856868083303417
sI4
F-0.8455955110960865
sI5
F-0.5550018434421715
sI6
F-0.03202636065039863
sI8
F0.14725997742756414
ss(I2
I1
I1
I1
I0
I0
I0
I2
I0
tp1027
(dp1028
I4
F-0.0756058235569231
sI5
F0.0061581321244669
sI6
F0.09130009529521499
sI8
F0.9255530285558932
ss(I1
I2
I0
I0
I0
I2
I1
I0
I0
tp1029
(dp1030
I2
F0.7246380943660992
sI3
F0.9999999999999996
sI4
F0.7827813382040653
sI7
F0.7880191340097447
sI8
F0.9164765135033197
ss(I1
I2
I0
I0
I0
I0
I1
I2
I0
tp1031
(dp1032
I2
F-0.8431361659254526
sI3
F0.9999999999999996
sI4
F0.9962482465557332
sI5
F-0.6255256602883644
sI8
F-0.7471320006016047
ss(I1
I2
I1
I0
I0
I0
I1
I2
I0
tp1033
(dp1034
I3
F-0.325694439738456
sI4
F0.9999999929074586
sI5
F-0.46324459
sI8
F-0.5943419634500468
ss(I1
I2
I1
I2
I0
I2
I1
I0
I0
tp1035
(dp1036
I4
F0.999999985171258
sI7
F-0.6035493281933855
sI8
F-0.8315604648333677
ss(I2
I0
I1
I0
I0
I0
I0
I2
I1
tp1037
(dp1038
I1
F0.22592071373189831
sI3
F0.33609812177800996
sI4
F0.8166334293404532
sI5
F0.9999999999999996
sI6
F0.7151633347503887
ss(I2
I0
I1
I0
I0
I2
I1
I0
I1
tp1039
(dp1040
I1
F-0.9999999999999982
sI3
F-0.9989980215655933
sI4
F-0.9202378577219126
sI7
F-0.9168936820221596
ss(I2
I2
I0
I0
I1
I1
I1
I0
I0
tp1041
(dp1042
I2
F0.9999999999999996
sI3
F-0.9236126614624525
sI7
F-0.6680236509042458
sI8
F-0.9653197577276212
ss(I2
I0
I1
I0
I2
I1
I0
I1
I0
tp1043
(dp1044
I1
F-0.9049130672243767
sI3
F-0.9471418890642367
sI6
F-0.9005381388794553
sI8
F0.9999999999999996
ss(I2
I0
I1
I0
I2
I0
I0
I1
I1
tp1045
(dp1046
I1
F-0.9999999997823441
sI3
F-0.8926692306964239
sI5
F-0.8926087858848597
sI6
F-0.8924743078806995
ss(I2
I2
I0
I0
I2
I1
I1
I0
I1
tp1047
(dp1048
I2
F0.9999999999999996
sI3
F-0.9471418890642367
sI7
F0.9881472099692635
ss(I2
I0
I1
I0
I0
I2
I1
I1
I0
tp1049
(dp1050
I1
F-0.7890971429642689
sI3
F-0.777348163640942
sI4
F-0.7911144781257788
sI8
F-0.7977747602281616
ss(I2
I0
I1
I0
I2
I2
I0
I1
I1
tp1051
(dp1052
I1
F-0.8237639814281299
sI3
F0.025807138039619294
sI6
F0.9999999999999996
ss(I2
I2
I1
I0
I0
I1
I1
I2
I0
tp1053
(dp1054
I3
F-0.46324459
sI4
F0.109
sI8
F0.9799271960054592
ss(I2
I2
I1
I1
I0
I1
I1
I2
I0
tp1055
(dp1056
I4
F0.7483552829954291
sI8
F0.01
ss(I1
I2
I0
I0
I2
I0
I1
I1
I0
tp1057
(dp1058
I2
F-0.9999999998998247
sI3
F-0.8248057120846741
sI5
F-0.9799246985450134
sI8
F-0.9919657324038006
ss(I2
I1
I0
I0
I0
I0
I1
I2
I1
tp1059
(dp1060
I2
F2.4485539835224885e-19
sI3
F-0.9187174232853146
sI4
F-0.01653118119890416
sI5
F-0.009947096958562815
ss(I2
I1
I0
I0
I0
I2
I1
I2
I1
tp1061
(dp1062
I2
F0.16758591112171387
sI3
F0.003922616197505324
sI4
F0.05386994769575337
ss(I2
I1
I1
I0
I0
I2
I1
I2
I1
tp1063
(dp1064
I3
F-0.9999999965391274
sI4
F1.8678978494166398e-78
ss(I2
I2
I1
I0
I0
I1
I2
I1
I0
tp1065
(dp1066
I3
F0.19809999999999992
sI4
F-0.1819
sI8
F0.99914909058884
ss(I2
I2
I0
I0
I1
I1
I1
I2
I1
tp1067
(dp1068
I2
F0.9999999999999996
sI3
F-0.9920662811166083
ss(I2
I1
I0
I0
I0
I2
I1
I0
I1
tp1069
(dp1070
I2
F-0.44406796069
sI3
F-0.43579593658290416
sI4
F-0.304194528883388
sI7
F-0.20838747532394328
ss(I2
I1
I0
I0
I0
I1
I1
I0
I2
tp1071
(dp1072
I2
F-0.15622715513387705
sI3
F-0.09086768792862761
sI4
F0.5264860690000001
sI7
F0.01
ss(I2
I2
I0
I1
I0
I0
I0
I1
I1
tp1073
(dp1074
I2
F0.6548083443010001
sI4
F0.01
sI5
F0.01
sI6
F0.009810000000000001
ss(I2
I2
I0
I1
I0
I0
I2
I1
I1
tp1075
(dp1076
I2
F0.13412504942151748
sI4
F-0.337339
sI5
F-0.1753796987333539
ss(I2
I1
I1
I0
I2
I1
I0
I2
I0
tp1077
(dp1078
I3
F-0.9332220197770877
sI6
F-0.7394659138199268
sI8
F0.9999999999999996
ss(I2
I1
I0
I0
I0
I1
I2
I0
I0
tp1079
(dp1080
I2
F-0.937637450391867
sI3
F-0.5889699059745099
sI4
F-0.7963378568816455
sI7
F-0.6744922535860406
sI8
F-0.915047387258924
ss(I2
I1
I0
I0
I0
I1
I2
I1
I0
tp1081
(dp1082
I2
F-0.5652281179
sI3
F0.9996337113998152
sI4
F0.6030744164853485
sI8
F-0.26371
ss(I2
I1
I2
I1
I0
I0
I0
I1
I2
tp1083
(dp1084
I4
F0.9837410287644219
sI5
F-0.09100000000000001
sI6
F-0.26371
ss(I2
I1
I1
I1
I0
I2
I0
I2
I0
tp1085
(dp1086
I4
F0.004304672100000001
sI6
F0.04115624776069077
sI8
F0.00729000000011766
ss(I2
I1
I0
I1
I0
I2
I0
I2
I1
tp1087
(dp1088
I2
F4.298848611035347e-05
sI4
F4.174557917929291e-05
sI6
F4.572603654182696e-05
ss(I2
I2
I0
I0
I0
I1
I2
I1
I1
tp1089
(dp1090
I2
F0.8165510013036678
sI3
F-0.09100000000000001
sI4
F-0.09100000000000001
ss(I0
I2
I0
I2
I1
I1
I0
I1
I0
tp1091
(dp1092
I0
F0.6865772458671666
sI2
F0.05278909558166402
sI6
F0.008921213702419472
sI8
F-0.1706641780660042
ss(I2
I2
I0
I2
I1
I1
I0
I1
I0
tp1093
(dp1094
I2
F-0.8872002005734357
sI6
F-0.6884901843403876
sI8
F-0.9999976223384494
ss(I2
I2
I0
I2
I1
I1
I0
I1
I1
tp1095
(dp1096
I2
F0.958032753307536
sI6
F0.9999999999999996
ss(I2
I2
I0
I1
I0
I1
I0
I2
I1
tp1097
(dp1098
I2
F0.7483552829954291
sI4
F0.109
sI6
F-0.26371
ss(I2
I1
I1
I0
I0
I1
I2
I0
I0
tp1099
(dp1100
I3
F0.9999999991377125
sI4
F-0.35034157234982166
sI7
F-0.647834775499
sI8
F0.6278935028227695
ss(I2
I1
I1
I0
I0
I2
I2
I1
I0
tp1101
(dp1102
I3
F0.007312528399544939
sI4
F0.9360352892966559
sI8
F-0.1819
ss(I2
I2
I1
I0
I0
I0
I1
I2
I1
tp1103
(dp1104
I3
F-0.7044708843348085
sI4
F0.9999999999999996
sI5
F0.9999068943523883
ss(I1
I2
I0
I0
I2
I2
I1
I1
I0
tp1105
(dp1106
I2
F-0.7714003272893022
sI3
F0.9999999999999996
sI8
F0.9922233844608338
ss(I2
I2
I1
I2
I1
I0
I0
I1
I1
tp1107
(dp1108
I5
F-0.9989282722218836
sI6
F0.9999999999999996
ss(I2
I1
I0
I0
I0
I1
I2
I0
I1
tp1109
(dp1110
I2
F0.7004009759995489
sI3
F0.9999999953465836
sI4
F-0.5481191285822433
sI7
F-0.60845796815419
ss(I2
I1
I2
I1
I0
I0
I1
I1
I2
tp1111
(dp1112
I4
F0.9995477918516237
sI5
F0.6893275098709001
ss(I2
I0
I1
I0
I0
I2
I1
I2
I1
tp1113
(dp1114
I1
F0.13794590933446405
sI3
F0.06837151610363437
sI4
F0.9999999999999996
ss(I2
I0
I2
I0
I0
I0
I1
I0
I1
tp1115
(dp1116
I1
F0.048449606657314764
sI3
F-0.8351444524432708
sI4
F-0.8105047022078254
sI5
F-0.4644319841849802
sI7
F0.9999999999999996
ss(I2
I2
I0
I1
I0
I0
I1
I1
I2
tp1117
(dp1118
I2
F-0.6446049893813084
sI4
F-0.9836045739386665
sI5
F-0.9891169836990512
ss(I2
I2
I1
I0
I0
I1
I1
I1
I2
tp1119
(dp1120
I3
F-0.46324459
sI4
F0.9937009414132755
ss(I2
I1
I0
I0
I0
I2
I1
I1
I0
tp1121
(dp1122
I2
F-0.7920499565844045
sI3
F-0.7768475546408428
sI4
F-0.4695604648333677
sI8
F-0.7689443962048939
ss(I1
I1
I0
I1
I2
I2
I0
I0
I0
tp1123
(dp1124
I2
F-0.7367591764614054
sI6
F-0.9878618598651305
sI7
F-0.9999861192685351
sI8
F-0.9880640674100386
ss(I1
I1
I0
I1
I2
I2
I0
I2
I0
tp1125
(dp1126
I2
F0.9999787004142321
sI6
F0.6893275098709001
sI8
F0.5732921133103125
ss(I2
I2
I0
I0
I2
I1
I0
I1
I1
tp1127
(dp1128
I2
F0.9999999999999996
sI3
F-0.8869680886590554
sI6
F0.9799271960054592
ss(I2
I0
I0
I0
I2
I1
I0
I1
I1
tp1129
(dp1130
I1
F-0.9914674389540625
sI2
F-0.8883920633744145
sI3
F-0.988030862737293
sI6
F-0.6292234127804475
ss(I2
I2
I0
I1
I0
I1
I2
I1
I1
tp1131
(dp1132
I2
F0.47387341000000005
sI4
F-0.09100000000000001
ss(I2
I1
I0
I0
I0
I1
I1
I2
I0
tp1133
(dp1134
I2
F-0.06563482055807379
sI3
F-0.8727471805962993
sI4
F-0.17361921438892647
sI8
F-0.7851897490343439
ss(I2
I0
I1
I0
I0
I2
I1
I0
I0
tp1135
(dp1136
I1
F-0.07583772475091277
sI3
F-0.08035792714421243
sI4
F0.9999991873772995
sI7
F0.36125214186121135
sI8
F0.49801431130937374
ss(I2
I1
I1
I0
I0
I2
I1
I0
I0
tp1137
(dp1138
I3
F-0.27837527093260156
sI4
F0.874073916045399
sI7
F-0.21359994622479267
sI8
F-0.23215384682199997
ss(I2
I2
I1
I1
I0
I0
I1
I2
I0
tp1139
(dp1140
I4
F0.9776968844505102
sI5
F-0.26371
sI8
F-0.26371
ss(I2
I0
I1
I0
I0
I2
I0
I1
I0
tp1141
(dp1142
I1
F-0.319501881013902
sI3
F0.16809923084266792
sI4
F0.40247145761126185
sI6
F0.926866477116809
sI8
F0.0903628690120808
ss(I2
I1
I1
I0
I0
I2
I0
I1
I0
tp1143
(dp1144
I3
F-0.4036051
sI4
F0.6557014441095625
sI6
F-0.24079889873845603
sI8
F-0.28457909758
ss(I2
I2
I0
I1
I0
I1
I1
I2
I0
tp1145
(dp1146
I2
F0.01
sI4
F0.47387341000000005
sI8
F-0.09100000000000001
ss(I2
I2
I0
I1
I2
I1
I0
I1
I0
tp1147
(dp1148
I2
F-0.9863536454553842
sI6
F-0.999992423259188
sI8
F-0.9948558738238424
ss(I1
I2
I0
I0
I1
I0
I1
I2
I0
tp1149
(dp1150
I2
F-0.995773244966904
sI3
F-0.9957587406233526
sI5
F-0.9957836965028916
sI8
F-0.9957836898899397
ss(I2
I2
I1
I0
I0
I1
I1
I0
I2
tp1151
(dp1152
I3
F-0.4036051
sI4
F0.9776968844505102
sI7
F-0.1819
ss(I2
I2
I1
I1
I0
I1
I1
I0
I2
tp1153
(dp1154
I4
F0.7735197546958862
sI7
F0.01
ss(I1
I2
I0
I0
I0
I1
I0
I2
I0
tp1155
(dp1156
I2
F-0.26371
sI3
F0.01
sI4
F0.9317492625903657
sI6
F0.01
sI8
F-0.02024489986963321
ss(I2
I0
I1
I0
I0
I2
I0
I1
I1
tp1157
(dp1158
I1
F-0.6693358704698015
sI3
F-0.8397675574479424
sI4
F-0.62286001925419
sI6
F0.10955362170145673
ss(I2
I2
I0
I0
I0
I1
I1
I2
I1
tp1159
(dp1160
I2
F0.9622294779767824
sI3
F-0.1819
sI4
F-0.1017100008756224
ss(I2
I1
I0
I1
I0
I2
I0
I0
I0
tp1161
(dp1162
I2
F-0.07614464101817951
sI4
F0.24178329110235594
sI6
F-0.6557418061739893
sI7
F-0.030965506489384155
sI8
F0.009258386957344399
ss(I2
I2
I0
I1
I0
I1
I1
I1
I2
tp1163
(dp1164
I2
F0.5738374621000001
sI4
F0.9990545450987112
ss(I1
I2
I0
I1
I0
I2
I0
I1
I0
tp1165
(dp1166
I2
F-0.15228119143784555
sI4
F-0.09100000000000001
sI6
F-0.003918324066855177
sI8
F-0.4036051
ss(I1
I2
I1
I2
I0
I0
I0
I2
I1
tp1167
(dp1168
I4
F0.9993107633769605
sI5
F0.27829000000000004
sI6
F-0.1819
ss(I1
I0
I1
I0
I0
I0
I0
I2
I0
tp1169
(dp1170
I1
F-0.6243311978480989
sI3
F-0.9483851749410349
sI4
F-0.8053349682632793
sI5
F-0.8909804462690465
sI6
F-0.9869483156283645
sI8
F-0.8135313137172699
ss(I2
I2
I0
I1
I0
I2
I0
I1
I1
tp1171
(dp1172
I2
F0.08582023483982404
sI4
F-0.337339
sI6
F0.9694058771611936
ss(I2
I1
I0
I0
I0
I1
I0
I2
I0
tp1173
(dp1174
I2
F-0.4675916628257252
sI3
F0.19493293294808572
sI4
F0.03407452097763801
sI6
F0.016050642509356523
sI8
F0.2448272099750386
ss(I2
I1
I0
I1
I0
I2
I0
I1
I0
tp1175
(dp1176
I2
F-0.7747638533701635
sI4
F0.19871910634947657
sI6
F-0.7873792013557016
sI8
F-0.6445673519426597
ss(I2
I1
I2
I1
I0
I1
I0
I2
I0
tp1177
(dp1178
I4
F0.7961677792262976
sI6
F0.008100000000000001
sI8
F0.01
ss(I2
I2
I0
I1
I0
I1
I2
I1
I0
tp1179
(dp1180
I2
F0.9760266489160975
sI4
F0.109
sI8
F-0.1819
ss(I0
I2
I0
I1
I2
I1
I0
I1
I0
tp1181
(dp1182
I0
F0.6042386187291469
sI2
F0.9888614251954903
sI6
F0.1214860930023216
sI8
F0.18313750449809574
ss(I2
I2
I0
I1
I0
I1
I0
I1
I2
tp1183
(dp1184
I2
F-0.1819
sI4
F0.7961677792262976
sI6
F-0.09100000000000001
ss(I1
I2
I0
I1
I2
I2
I0
I1
I1
tp1185
(dp1186
I2
F-0.7689443962048939
sI6
F5.222689519770951e-11
ss(I2
I1
I0
I0
I0
I0
I0
I1
I2
tp1187
(dp1188
I2
F-0.09100000000000001
sI3
F0.005375575888381015
sI4
F0.9289280992185066
sI5
F-0.1819
sI6
F0.01
ss(I2
I1
I1
I0
I0
I0
I0
I1
I2
tp1189
(dp1190
I3
F-0.5908104384195695
sI4
F0.999999999999919
sI5
F-0.809020646083196
sI6
F-0.5188853514387505
ss(I2
I2
I0
I1
I0
I1
I1
I0
I2
tp1191
(dp1192
I2
F-0.26371
sI4
F0.9752187605005669
sI7
F-0.26371
ss(I1
I2
I0
I2
I0
I1
I0
I0
I1
tp1193
(dp1194
I2
F-0.9469766517194936
sI4
F-0.9411334199117976
sI6
F-0.9568211100387989
sI7
F-0.8440739771859044
ss(I2
I1
I0
I0
I0
I2
I0
I1
I0
tp1195
(dp1196
I2
F-0.03136051
sI3
F0.0317659495636836
sI4
F0.01
sI6
F0.6143058729247143
sI8
F0.10854079862902777
ss(I2
I2
I0
I0
I0
I1
I1
I1
I2
tp1197
(dp1198
I2
F-0.9309265232881139
sI3
F-0.9412687656269296
sI4
F-0.925830505149202
ss(I1
I2
I0
I0
I0
I2
I1
I0
I1
tp1199
(dp1200
I2
F-0.5652281179
sI3
F-0.516920131
sI4
F-0.516920131
sI7
F-0.516920131
ss(I1
I2
I0
I0
I0
I2
I1
I1
I0
tp1201
(dp1202
I2
F-0.5652281179
sI3
F-0.5652242409525544
sI4
F-0.5969578559491017
sI8
F-0.6478054990488067
ss(I1
I2
I1
I2
I0
I2
I1
I0
I1
tp1203
(dp1204
I4
F0.8662656799503738
sI7
F0.01
ss(I2
I1
I1
I0
I0
I1
I0
I0
I2
tp1205
(dp1206
I3
F0.6591781465578784
sI4
F0.9533697258972622
sI6
F0.7158625892366733
sI7
F0.5521946665417448
ss(I1
I2
I0
I0
I0
I0
I0
I2
I1
tp1207
(dp1208
I2
F-0.337339
sI3
F-0.0516178
sI4
F0.834895901173301
sI5
F0.01
sI6
F0.01
ss(I1
I2
I0
I1
I0
I0
I0
I2
I1
tp1209
(dp1210
I2
F-0.09100000000000001
sI4
F0.5264860690000001
sI5
F-0.09100000000000001
sI6
F-0.09100000000000001
ss(I2
I1
I1
I0
I0
I2
I2
I0
I1
tp1211
(dp1212
I3
F2.9008768032024007e-15
sI4
F-0.9104843249915098
sI7
F-0.9069031894352722
ss(I1
I1
I0
I1
I0
I2
I0
I2
I0
tp1213
(dp1214
I2
F-0.7734957183868322
sI4
F-0.7687628956026095
sI6
F-0.7878979971913905
sI8
F-0.7774705345235194
ss(I0
I2
I0
I1
I0
I1
I0
I2
I0
tp1215
(dp1216
I0
F-0.074071
sI2
F-0.09100000000000001
sI4
F0.47387341000000005
sI6
F0.01
sI8
F0.01
ss(I1
I2
I0
I1
I0
I1
I0
I2
I0
tp1217
(dp1218
I2
F-0.09100000000000001
sI4
F0.6548083443010001
sI6
F0.01
sI8
F-0.09100000000000001
ss(I2
I1
I1
I0
I0
I2
I2
I1
I1
tp1219
(dp1220
I3
F0.9360352892966559
sI4
F0.009000000000000001
ss(I2
I0
I1
I0
I0
I0
I1
I0
I2
tp1221
(dp1222
I1
F-0.209478908468769
sI3
F-0.28324650696271914
sI4
F0.9999960531437557
sI5
F-0.46324459
sI7
F-0.09100000000000001
ss(I2
I1
I0
I1
I0
I0
I0
I0
I2
tp1223
(dp1224
I2
F-0.09100000000000001
sI4
F0.8912569279346485
sI5
F0.01
sI6
F-0.0664636435821374
sI7
F-0.09100000000000001
ss(I2
I1
I0
I1
I0
I1
I0
I0
I2
tp1225
(dp1226
I2
F-0.26371
sI4
F0.47387341000000005
sI6
F0.01
sI7
F0.01
ss(I2
I1
I2
I1
I0
I1
I2
I0
I0
tp1227
(dp1228
I4
F0.9481885843302913
sI7
F-0.09100000000000001
sI8
F-0.09100000000000001
ss(I2
I1
I0
I0
I0
I1
I0
I0
I2
tp1229
(dp1230
I2
F-0.1576147058980957
sI3
F-0.09100000000000001
sI4
F0.8511686614434689
sI6
F-0.26371
sI7
F-0.09100000000000001
ss(I2
I1
I1
I0
I0
I1
I2
I0
I2
tp1231
(dp1232
I3
F-0.6087053061100001
sI4
F-0.6087053061100001
sI7
F-0.6087053061100001
ss(I2
I2
I0
I2
I0
I1
I0
I1
I1
tp1233
(dp1234
I2
F0.834895901173301
sI4
F-0.09100000000000001
sI6
F0.109
ss(I2
I2
I0
I0
I0
I1
I0
I1
I1
tp1235
(dp1236
I2
F0.350461
sI3
F0.01
sI4
F0.01
sI6
F-0.09100000000000001
ss(I1
I2
I0
I0
I0
I1
I1
I2
I0
tp1237
(dp1238
I2
F-0.2598150683895257
sI3
F-0.40256735283338624
sI4
F0.9954079862902777
sI8
F-0.26370296175624774
ss(I2
I1
I0
I0
I0
I0
I2
I1
I0
tp1239
(dp1240
I2
F-0.1819
sI3
F-0.04708756161100001
sI4
F0.9360352892966559
sI5
F-0.07160687786461038
sI8
F0.10189280992185067
ss(I2
I2
I0
I1
I0
I1
I0
I1
I0
tp1241
(dp1242
I2
F0.5738374621000001
sI4
F0.01
sI6
F0.01
sI8
F0.01
ss(I2
I1
I2
I1
I0
I1
I0
I0
I0
tp1243
(dp1244
I4
F0.09804043373863139
sI6
F0.01
sI7
F0.00901642320326826
sI8
F0.01
ss(I2
I2
I0
I1
I0
I1
I0
I0
I1
tp1245
(dp1246
I2
F0.5738374621000001
sI4
F0.01
sI6
F0.01
sI7
F0.01
ss(I2
I1
I2
I1
I0
I1
I2
I1
I0
tp1247
(dp1248
I4
F0.1981
sI8
F0.01
ss.